
STM32F401RE_LCD.elf:     file format elf32-littlearm

Sections:
Idx Name          Size      VMA       LMA       File off  Algn
  0 .isr_vector   00000194  08000000  08000000  00010000  2**0
                  CONTENTS, ALLOC, LOAD, READONLY, DATA
  1 .text         00003100  08000194  08000194  00010194  2**2
                  CONTENTS, ALLOC, LOAD, READONLY, CODE
  2 .rodata       000005f4  08003294  08003294  00013294  2**2
                  CONTENTS, ALLOC, LOAD, READONLY, DATA
  3 .ARM.extab    00000000  08003888  08003888  00020028  2**0
                  CONTENTS
  4 .ARM          00000000  08003888  08003888  00020028  2**0
                  CONTENTS
  5 .preinit_array 00000000  08003888  08003888  00020028  2**0
                  CONTENTS, ALLOC, LOAD, DATA
  6 .init_array   00000004  08003888  08003888  00013888  2**2
                  CONTENTS, ALLOC, LOAD, DATA
  7 .fini_array   00000004  0800388c  0800388c  0001388c  2**2
                  CONTENTS, ALLOC, LOAD, DATA
  8 .data         00000028  20000000  08003890  00020000  2**2
                  CONTENTS, ALLOC, LOAD, DATA
  9 .bss          00001274  20000028  080038b8  00020028  2**2
                  ALLOC
 10 ._user_heap_stack 00000604  2000129c  080038b8  0002129c  2**0
                  ALLOC
 11 .ARM.attributes 00000030  00000000  00000000  00020028  2**0
                  CONTENTS, READONLY
 12 .debug_info   00036e6f  00000000  00000000  00020058  2**0
                  CONTENTS, READONLY, DEBUGGING, OCTETS
 13 .debug_abbrev 000022c0  00000000  00000000  00056ec7  2**0
                  CONTENTS, READONLY, DEBUGGING, OCTETS
 14 .debug_aranges 000008d8  00000000  00000000  00059188  2**3
                  CONTENTS, READONLY, DEBUGGING, OCTETS
 15 .debug_ranges 00000768  00000000  00000000  00059a60  2**3
                  CONTENTS, READONLY, DEBUGGING, OCTETS
 16 .debug_macro  0000d97c  00000000  00000000  0005a1c8  2**0
                  CONTENTS, READONLY, DEBUGGING, OCTETS
 17 .debug_line   000075cc  00000000  00000000  00067b44  2**0
                  CONTENTS, READONLY, DEBUGGING, OCTETS
 18 .debug_str    00045aa7  00000000  00000000  0006f110  2**0
                  CONTENTS, READONLY, DEBUGGING, OCTETS
 19 .comment      000000ce  00000000  00000000  000b4bb7  2**0
                  CONTENTS, READONLY
 20 .debug_frame  00002130  00000000  00000000  000b4c88  2**2
                  CONTENTS, READONLY, DEBUGGING, OCTETS

Disassembly of section .text:

08000194 <__do_global_dtors_aux>:
 8000194:	b510      	push	{r4, lr}
 8000196:	4c05      	ldr	r4, [pc, #20]	; (80001ac <__do_global_dtors_aux+0x18>)
 8000198:	7823      	ldrb	r3, [r4, #0]
 800019a:	b933      	cbnz	r3, 80001aa <__do_global_dtors_aux+0x16>
 800019c:	4b04      	ldr	r3, [pc, #16]	; (80001b0 <__do_global_dtors_aux+0x1c>)
 800019e:	b113      	cbz	r3, 80001a6 <__do_global_dtors_aux+0x12>
 80001a0:	4804      	ldr	r0, [pc, #16]	; (80001b4 <__do_global_dtors_aux+0x20>)
 80001a2:	f3af 8000 	nop.w
 80001a6:	2301      	movs	r3, #1
 80001a8:	7023      	strb	r3, [r4, #0]
 80001aa:	bd10      	pop	{r4, pc}
 80001ac:	20000028 	.word	0x20000028
 80001b0:	00000000 	.word	0x00000000
 80001b4:	0800327c 	.word	0x0800327c

080001b8 <frame_dummy>:
 80001b8:	b508      	push	{r3, lr}
 80001ba:	4b03      	ldr	r3, [pc, #12]	; (80001c8 <frame_dummy+0x10>)
 80001bc:	b11b      	cbz	r3, 80001c6 <frame_dummy+0xe>
 80001be:	4903      	ldr	r1, [pc, #12]	; (80001cc <frame_dummy+0x14>)
 80001c0:	4803      	ldr	r0, [pc, #12]	; (80001d0 <frame_dummy+0x18>)
 80001c2:	f3af 8000 	nop.w
 80001c6:	bd08      	pop	{r3, pc}
 80001c8:	00000000 	.word	0x00000000
 80001cc:	2000002c 	.word	0x2000002c
 80001d0:	0800327c 	.word	0x0800327c

080001d4 <main>:

static ucg_t ucg;


int main(void)
{
 80001d4:	b580      	push	{r7, lr}
 80001d6:	b086      	sub	sp, #24
 80001d8:	af02      	add	r7, sp, #8
		SystemCoreClockUpdate();        // cấp clock
 80001da:	f000 f8a7 	bl	800032c <SystemCoreClockUpdate>
	    TimerInit();                    // để khởi tạo chức năng timer.
 80001de:	f000 f9bd 	bl	800055c <TimerInit>

	    // Khởi tạo LCD
	    Ucglib4WireSWSPI_begin(&ucg, UCG_FONT_MODE_SOLID);
 80001e2:	2100      	movs	r1, #0
 80001e4:	481e      	ldr	r0, [pc, #120]	; (8000260 <main+0x8c>)
 80001e6:	f000 fcef 	bl	8000bc8 <Ucglib4WireSWSPI_begin>
	    ucg_ClearScreen(&ucg);
 80001ea:	481d      	ldr	r0, [pc, #116]	; (8000260 <main+0x8c>)
 80001ec:	f000 fd33 	bl	8000c56 <ucg_ClearScreen>

	    ucg_SetFont(&ucg, ucg_font_helvR08_hr);         // lựa chọn font chữ và cỡ chữ
 80001f0:	491c      	ldr	r1, [pc, #112]	; (8000264 <main+0x90>)
 80001f2:	481b      	ldr	r0, [pc, #108]	; (8000260 <main+0x8c>)
 80001f4:	f001 fe80 	bl	8001ef8 <ucg_SetFont>
	    ucg_SetColor(&ucg, 0, 0, 255, 0);           // chọn màu chữ là màu trắng
 80001f8:	2300      	movs	r3, #0
 80001fa:	9300      	str	r3, [sp, #0]
 80001fc:	23ff      	movs	r3, #255	; 0xff
 80001fe:	2200      	movs	r2, #0
 8000200:	2100      	movs	r1, #0
 8000202:	4817      	ldr	r0, [pc, #92]	; (8000260 <main+0x8c>)
 8000204:	f001 ff7b 	bl	80020fe <ucg_SetColor>
	    ucg_SetColor(&ucg, 1, 0, 0, 0);                 // màu background là màu đen
 8000208:	2300      	movs	r3, #0
 800020a:	9300      	str	r3, [sp, #0]
 800020c:	2300      	movs	r3, #0
 800020e:	2200      	movs	r2, #0
 8000210:	2101      	movs	r1, #1
 8000212:	4813      	ldr	r0, [pc, #76]	; (8000260 <main+0x8c>)
 8000214:	f001 ff73 	bl	80020fe <ucg_SetColor>
	    ucg_SetRotate180(&ucg);      // quay màn hình lại 180 độ
 8000218:	4811      	ldr	r0, [pc, #68]	; (8000260 <main+0x8c>)
 800021a:	f002 f86b 	bl	80022f4 <ucg_SetRotate180>

	    int screen_width = ucg_GetWidth(&ucg);  // Đảm bảo rằng ucg đã được khởi tạo
 800021e:	4b10      	ldr	r3, [pc, #64]	; (8000260 <main+0x8c>)
 8000220:	f9b3 3002 	ldrsh.w	r3, [r3, #2]
 8000224:	60fb      	str	r3, [r7, #12]
	    int screen_height = ucg_GetHeight(&ucg);
 8000226:	4b0e      	ldr	r3, [pc, #56]	; (8000260 <main+0x8c>)
 8000228:	f9b3 3004 	ldrsh.w	r3, [r3, #4]
 800022c:	60bb      	str	r3, [r7, #8]

	    int x1 = screen_width - ucg_GetStrWidth(&ucg, "Nhom 6_TTCS");
 800022e:	490e      	ldr	r1, [pc, #56]	; (8000268 <main+0x94>)
 8000230:	480b      	ldr	r0, [pc, #44]	; (8000260 <main+0x8c>)
 8000232:	f001 fe87 	bl	8001f44 <ucg_GetStrWidth>
 8000236:	4603      	mov	r3, r0
 8000238:	461a      	mov	r2, r3
 800023a:	68fb      	ldr	r3, [r7, #12]
 800023c:	1a9b      	subs	r3, r3, r2
 800023e:	607b      	str	r3, [r7, #4]
	    int y1 = screen_height - 5;
 8000240:	68bb      	ldr	r3, [r7, #8]
 8000242:	3b05      	subs	r3, #5
 8000244:	603b      	str	r3, [r7, #0]

	    ucg_DrawString(&ucg, x1, y1, 0, "Nhom 6_TTCS");
 8000246:	687b      	ldr	r3, [r7, #4]
 8000248:	b219      	sxth	r1, r3
 800024a:	683b      	ldr	r3, [r7, #0]
 800024c:	b21a      	sxth	r2, r3
 800024e:	4b06      	ldr	r3, [pc, #24]	; (8000268 <main+0x94>)
 8000250:	9300      	str	r3, [sp, #0]
 8000252:	2300      	movs	r3, #0
 8000254:	4802      	ldr	r0, [pc, #8]	; (8000260 <main+0x8c>)
 8000256:	f001 fd8b 	bl	8001d70 <ucg_DrawString>

	    /* Loop forever */
	    while(1)
	    {
	        processTimerScheduler();
 800025a:	f000 fa5f 	bl	800071c <processTimerScheduler>
 800025e:	e7fc      	b.n	800025a <main+0x86>
 8000260:	20000044 	.word	0x20000044
 8000264:	08003390 	.word	0x08003390
 8000268:	08003294 	.word	0x08003294

0800026c <Reset_Handler>:

  .section .text.Reset_Handler
  .weak Reset_Handler
  .type Reset_Handler, %function
Reset_Handler:
  ldr   r0, =_estack
 800026c:	480d      	ldr	r0, [pc, #52]	; (80002a4 <LoopForever+0x2>)
  mov   sp, r0          /* set stack pointer */
 800026e:	4685      	mov	sp, r0
/* Call the clock system intitialization function.*/
  bl  SystemInit
 8000270:	f000 f826 	bl	80002c0 <SystemInit>

/* Copy the data segment initializers from flash to SRAM */
  ldr r0, =_sdata
 8000274:	480c      	ldr	r0, [pc, #48]	; (80002a8 <LoopForever+0x6>)
  ldr r1, =_edata
 8000276:	490d      	ldr	r1, [pc, #52]	; (80002ac <LoopForever+0xa>)
  ldr r2, =_sidata
 8000278:	4a0d      	ldr	r2, [pc, #52]	; (80002b0 <LoopForever+0xe>)
  movs r3, #0
 800027a:	2300      	movs	r3, #0
  b LoopCopyDataInit
 800027c:	e002      	b.n	8000284 <LoopCopyDataInit>

0800027e <CopyDataInit>:

CopyDataInit:
  ldr r4, [r2, r3]
 800027e:	58d4      	ldr	r4, [r2, r3]
  str r4, [r0, r3]
 8000280:	50c4      	str	r4, [r0, r3]
  adds r3, r3, #4
 8000282:	3304      	adds	r3, #4

08000284 <LoopCopyDataInit>:

LoopCopyDataInit:
  adds r4, r0, r3
 8000284:	18c4      	adds	r4, r0, r3
  cmp r4, r1
 8000286:	428c      	cmp	r4, r1
  bcc CopyDataInit
 8000288:	d3f9      	bcc.n	800027e <CopyDataInit>

/* Zero fill the bss segment. */
  ldr r2, =_sbss
 800028a:	4a0a      	ldr	r2, [pc, #40]	; (80002b4 <LoopForever+0x12>)
  ldr r4, =_ebss
 800028c:	4c0a      	ldr	r4, [pc, #40]	; (80002b8 <LoopForever+0x16>)
  movs r3, #0
 800028e:	2300      	movs	r3, #0
  b LoopFillZerobss
 8000290:	e001      	b.n	8000296 <LoopFillZerobss>

08000292 <FillZerobss>:

FillZerobss:
  str  r3, [r2]
 8000292:	6013      	str	r3, [r2, #0]
  adds r2, r2, #4
 8000294:	3204      	adds	r2, #4

08000296 <LoopFillZerobss>:

LoopFillZerobss:
  cmp r2, r4
 8000296:	42a2      	cmp	r2, r4
  bcc FillZerobss
 8000298:	d3fb      	bcc.n	8000292 <FillZerobss>

/* Call static constructors */
  bl __libc_init_array
 800029a:	f002 ffcb 	bl	8003234 <__libc_init_array>
/* Call the application's entry point.*/
  bl main
 800029e:	f7ff ff99 	bl	80001d4 <main>

080002a2 <LoopForever>:

LoopForever:
    b LoopForever
 80002a2:	e7fe      	b.n	80002a2 <LoopForever>
  ldr   r0, =_estack
 80002a4:	20018000 	.word	0x20018000
  ldr r0, =_sdata
 80002a8:	20000000 	.word	0x20000000
  ldr r1, =_edata
 80002ac:	20000028 	.word	0x20000028
  ldr r2, =_sidata
 80002b0:	08003890 	.word	0x08003890
  ldr r2, =_sbss
 80002b4:	20000028 	.word	0x20000028
  ldr r4, =_ebss
 80002b8:	2000129c 	.word	0x2000129c

080002bc <ADC_IRQHandler>:
 * @retval : None
*/
  .section .text.Default_Handler,"ax",%progbits
Default_Handler:
Infinite_Loop:
  b Infinite_Loop
 80002bc:	e7fe      	b.n	80002bc <ADC_IRQHandler>
	...

080002c0 <SystemInit>:
 80002c0:	b580      	push	{r7, lr}
 80002c2:	af00      	add	r7, sp, #0
 80002c4:	4b16      	ldr	r3, [pc, #88]	; (8000320 <SystemInit+0x60>)
 80002c6:	f8d3 3088 	ldr.w	r3, [r3, #136]	; 0x88
 80002ca:	4a15      	ldr	r2, [pc, #84]	; (8000320 <SystemInit+0x60>)
 80002cc:	f443 0370 	orr.w	r3, r3, #15728640	; 0xf00000
 80002d0:	f8c2 3088 	str.w	r3, [r2, #136]	; 0x88
 80002d4:	4b13      	ldr	r3, [pc, #76]	; (8000324 <SystemInit+0x64>)
 80002d6:	681b      	ldr	r3, [r3, #0]
 80002d8:	4a12      	ldr	r2, [pc, #72]	; (8000324 <SystemInit+0x64>)
 80002da:	f043 0301 	orr.w	r3, r3, #1
 80002de:	6013      	str	r3, [r2, #0]
 80002e0:	4b10      	ldr	r3, [pc, #64]	; (8000324 <SystemInit+0x64>)
 80002e2:	2200      	movs	r2, #0
 80002e4:	609a      	str	r2, [r3, #8]
 80002e6:	4b0f      	ldr	r3, [pc, #60]	; (8000324 <SystemInit+0x64>)
 80002e8:	681b      	ldr	r3, [r3, #0]
 80002ea:	4a0e      	ldr	r2, [pc, #56]	; (8000324 <SystemInit+0x64>)
 80002ec:	f023 7384 	bic.w	r3, r3, #17301504	; 0x1080000
 80002f0:	f423 3380 	bic.w	r3, r3, #65536	; 0x10000
 80002f4:	6013      	str	r3, [r2, #0]
 80002f6:	4b0b      	ldr	r3, [pc, #44]	; (8000324 <SystemInit+0x64>)
 80002f8:	4a0b      	ldr	r2, [pc, #44]	; (8000328 <SystemInit+0x68>)
 80002fa:	605a      	str	r2, [r3, #4]
 80002fc:	4b09      	ldr	r3, [pc, #36]	; (8000324 <SystemInit+0x64>)
 80002fe:	681b      	ldr	r3, [r3, #0]
 8000300:	4a08      	ldr	r2, [pc, #32]	; (8000324 <SystemInit+0x64>)
 8000302:	f423 2380 	bic.w	r3, r3, #262144	; 0x40000
 8000306:	6013      	str	r3, [r2, #0]
 8000308:	4b06      	ldr	r3, [pc, #24]	; (8000324 <SystemInit+0x64>)
 800030a:	2200      	movs	r2, #0
 800030c:	60da      	str	r2, [r3, #12]
 800030e:	f000 f889 	bl	8000424 <SetSysClock>
 8000312:	4b03      	ldr	r3, [pc, #12]	; (8000320 <SystemInit+0x60>)
 8000314:	f04f 6200 	mov.w	r2, #134217728	; 0x8000000
 8000318:	609a      	str	r2, [r3, #8]
 800031a:	bf00      	nop
 800031c:	bd80      	pop	{r7, pc}
 800031e:	bf00      	nop
 8000320:	e000ed00 	.word	0xe000ed00
 8000324:	40023800 	.word	0x40023800
 8000328:	24003010 	.word	0x24003010

0800032c <SystemCoreClockUpdate>:
 800032c:	b480      	push	{r7}
 800032e:	b087      	sub	sp, #28
 8000330:	af00      	add	r7, sp, #0
 8000332:	2300      	movs	r3, #0
 8000334:	613b      	str	r3, [r7, #16]
 8000336:	2300      	movs	r3, #0
 8000338:	617b      	str	r3, [r7, #20]
 800033a:	2302      	movs	r3, #2
 800033c:	60fb      	str	r3, [r7, #12]
 800033e:	2300      	movs	r3, #0
 8000340:	60bb      	str	r3, [r7, #8]
 8000342:	2302      	movs	r3, #2
 8000344:	607b      	str	r3, [r7, #4]
 8000346:	4b32      	ldr	r3, [pc, #200]	; (8000410 <SystemCoreClockUpdate+0xe4>)
 8000348:	689b      	ldr	r3, [r3, #8]
 800034a:	f003 030c 	and.w	r3, r3, #12
 800034e:	613b      	str	r3, [r7, #16]
 8000350:	693b      	ldr	r3, [r7, #16]
 8000352:	2b04      	cmp	r3, #4
 8000354:	d007      	beq.n	8000366 <SystemCoreClockUpdate+0x3a>
 8000356:	2b08      	cmp	r3, #8
 8000358:	d009      	beq.n	800036e <SystemCoreClockUpdate+0x42>
 800035a:	2b00      	cmp	r3, #0
 800035c:	d13d      	bne.n	80003da <SystemCoreClockUpdate+0xae>
 800035e:	4b2d      	ldr	r3, [pc, #180]	; (8000414 <SystemCoreClockUpdate+0xe8>)
 8000360:	4a2d      	ldr	r2, [pc, #180]	; (8000418 <SystemCoreClockUpdate+0xec>)
 8000362:	601a      	str	r2, [r3, #0]
 8000364:	e03d      	b.n	80003e2 <SystemCoreClockUpdate+0xb6>
 8000366:	4b2b      	ldr	r3, [pc, #172]	; (8000414 <SystemCoreClockUpdate+0xe8>)
 8000368:	4a2c      	ldr	r2, [pc, #176]	; (800041c <SystemCoreClockUpdate+0xf0>)
 800036a:	601a      	str	r2, [r3, #0]
 800036c:	e039      	b.n	80003e2 <SystemCoreClockUpdate+0xb6>
 800036e:	4b28      	ldr	r3, [pc, #160]	; (8000410 <SystemCoreClockUpdate+0xe4>)
 8000370:	685b      	ldr	r3, [r3, #4]
 8000372:	0d9b      	lsrs	r3, r3, #22
 8000374:	f003 0301 	and.w	r3, r3, #1
 8000378:	60bb      	str	r3, [r7, #8]
 800037a:	4b25      	ldr	r3, [pc, #148]	; (8000410 <SystemCoreClockUpdate+0xe4>)
 800037c:	685b      	ldr	r3, [r3, #4]
 800037e:	f003 033f 	and.w	r3, r3, #63	; 0x3f
 8000382:	607b      	str	r3, [r7, #4]
 8000384:	68bb      	ldr	r3, [r7, #8]
 8000386:	2b00      	cmp	r3, #0
 8000388:	d00c      	beq.n	80003a4 <SystemCoreClockUpdate+0x78>
 800038a:	4a24      	ldr	r2, [pc, #144]	; (800041c <SystemCoreClockUpdate+0xf0>)
 800038c:	687b      	ldr	r3, [r7, #4]
 800038e:	fbb2 f3f3 	udiv	r3, r2, r3
 8000392:	4a1f      	ldr	r2, [pc, #124]	; (8000410 <SystemCoreClockUpdate+0xe4>)
 8000394:	6852      	ldr	r2, [r2, #4]
 8000396:	0992      	lsrs	r2, r2, #6
 8000398:	f3c2 0208 	ubfx	r2, r2, #0, #9
 800039c:	fb02 f303 	mul.w	r3, r2, r3
 80003a0:	617b      	str	r3, [r7, #20]
 80003a2:	e00b      	b.n	80003bc <SystemCoreClockUpdate+0x90>
 80003a4:	4a1c      	ldr	r2, [pc, #112]	; (8000418 <SystemCoreClockUpdate+0xec>)
 80003a6:	687b      	ldr	r3, [r7, #4]
 80003a8:	fbb2 f3f3 	udiv	r3, r2, r3
 80003ac:	4a18      	ldr	r2, [pc, #96]	; (8000410 <SystemCoreClockUpdate+0xe4>)
 80003ae:	6852      	ldr	r2, [r2, #4]
 80003b0:	0992      	lsrs	r2, r2, #6
 80003b2:	f3c2 0208 	ubfx	r2, r2, #0, #9
 80003b6:	fb02 f303 	mul.w	r3, r2, r3
 80003ba:	617b      	str	r3, [r7, #20]
 80003bc:	4b14      	ldr	r3, [pc, #80]	; (8000410 <SystemCoreClockUpdate+0xe4>)
 80003be:	685b      	ldr	r3, [r3, #4]
 80003c0:	0c1b      	lsrs	r3, r3, #16
 80003c2:	f003 0303 	and.w	r3, r3, #3
 80003c6:	3301      	adds	r3, #1
 80003c8:	005b      	lsls	r3, r3, #1
 80003ca:	60fb      	str	r3, [r7, #12]
 80003cc:	697a      	ldr	r2, [r7, #20]
 80003ce:	68fb      	ldr	r3, [r7, #12]
 80003d0:	fbb2 f3f3 	udiv	r3, r2, r3
 80003d4:	4a0f      	ldr	r2, [pc, #60]	; (8000414 <SystemCoreClockUpdate+0xe8>)
 80003d6:	6013      	str	r3, [r2, #0]
 80003d8:	e003      	b.n	80003e2 <SystemCoreClockUpdate+0xb6>
 80003da:	4b0e      	ldr	r3, [pc, #56]	; (8000414 <SystemCoreClockUpdate+0xe8>)
 80003dc:	4a0e      	ldr	r2, [pc, #56]	; (8000418 <SystemCoreClockUpdate+0xec>)
 80003de:	601a      	str	r2, [r3, #0]
 80003e0:	bf00      	nop
 80003e2:	4b0b      	ldr	r3, [pc, #44]	; (8000410 <SystemCoreClockUpdate+0xe4>)
 80003e4:	689b      	ldr	r3, [r3, #8]
 80003e6:	091b      	lsrs	r3, r3, #4
 80003e8:	f003 030f 	and.w	r3, r3, #15
 80003ec:	4a0c      	ldr	r2, [pc, #48]	; (8000420 <SystemCoreClockUpdate+0xf4>)
 80003ee:	5cd3      	ldrb	r3, [r2, r3]
 80003f0:	b2db      	uxtb	r3, r3
 80003f2:	613b      	str	r3, [r7, #16]
 80003f4:	4b07      	ldr	r3, [pc, #28]	; (8000414 <SystemCoreClockUpdate+0xe8>)
 80003f6:	681a      	ldr	r2, [r3, #0]
 80003f8:	693b      	ldr	r3, [r7, #16]
 80003fa:	fa22 f303 	lsr.w	r3, r2, r3
 80003fe:	4a05      	ldr	r2, [pc, #20]	; (8000414 <SystemCoreClockUpdate+0xe8>)
 8000400:	6013      	str	r3, [r2, #0]
 8000402:	bf00      	nop
 8000404:	371c      	adds	r7, #28
 8000406:	46bd      	mov	sp, r7
 8000408:	f85d 7b04 	ldr.w	r7, [sp], #4
 800040c:	4770      	bx	lr
 800040e:	bf00      	nop
 8000410:	40023800 	.word	0x40023800
 8000414:	20000000 	.word	0x20000000
 8000418:	00f42400 	.word	0x00f42400
 800041c:	017d7840 	.word	0x017d7840
 8000420:	20000004 	.word	0x20000004

08000424 <SetSysClock>:
 8000424:	b480      	push	{r7}
 8000426:	af00      	add	r7, sp, #0
 8000428:	4b22      	ldr	r3, [pc, #136]	; (80004b4 <SetSysClock+0x90>)
 800042a:	6c1b      	ldr	r3, [r3, #64]	; 0x40
 800042c:	4a21      	ldr	r2, [pc, #132]	; (80004b4 <SetSysClock+0x90>)
 800042e:	f043 5380 	orr.w	r3, r3, #268435456	; 0x10000000
 8000432:	6413      	str	r3, [r2, #64]	; 0x40
 8000434:	4b20      	ldr	r3, [pc, #128]	; (80004b8 <SetSysClock+0x94>)
 8000436:	681b      	ldr	r3, [r3, #0]
 8000438:	4a1f      	ldr	r2, [pc, #124]	; (80004b8 <SetSysClock+0x94>)
 800043a:	f443 4340 	orr.w	r3, r3, #49152	; 0xc000
 800043e:	6013      	str	r3, [r2, #0]
 8000440:	4b1c      	ldr	r3, [pc, #112]	; (80004b4 <SetSysClock+0x90>)
 8000442:	4a1c      	ldr	r2, [pc, #112]	; (80004b4 <SetSysClock+0x90>)
 8000444:	689b      	ldr	r3, [r3, #8]
 8000446:	6093      	str	r3, [r2, #8]
 8000448:	4b1a      	ldr	r3, [pc, #104]	; (80004b4 <SetSysClock+0x90>)
 800044a:	4a1a      	ldr	r2, [pc, #104]	; (80004b4 <SetSysClock+0x90>)
 800044c:	689b      	ldr	r3, [r3, #8]
 800044e:	6093      	str	r3, [r2, #8]
 8000450:	4b18      	ldr	r3, [pc, #96]	; (80004b4 <SetSysClock+0x90>)
 8000452:	689b      	ldr	r3, [r3, #8]
 8000454:	4a17      	ldr	r2, [pc, #92]	; (80004b4 <SetSysClock+0x90>)
 8000456:	f443 5380 	orr.w	r3, r3, #4096	; 0x1000
 800045a:	6093      	str	r3, [r2, #8]
 800045c:	4b15      	ldr	r3, [pc, #84]	; (80004b4 <SetSysClock+0x90>)
 800045e:	4a17      	ldr	r2, [pc, #92]	; (80004bc <SetSysClock+0x98>)
 8000460:	605a      	str	r2, [r3, #4]
 8000462:	4b14      	ldr	r3, [pc, #80]	; (80004b4 <SetSysClock+0x90>)
 8000464:	681b      	ldr	r3, [r3, #0]
 8000466:	4a13      	ldr	r2, [pc, #76]	; (80004b4 <SetSysClock+0x90>)
 8000468:	f043 7380 	orr.w	r3, r3, #16777216	; 0x1000000
 800046c:	6013      	str	r3, [r2, #0]
 800046e:	bf00      	nop
 8000470:	4b10      	ldr	r3, [pc, #64]	; (80004b4 <SetSysClock+0x90>)
 8000472:	681b      	ldr	r3, [r3, #0]
 8000474:	f003 7300 	and.w	r3, r3, #33554432	; 0x2000000
 8000478:	2b00      	cmp	r3, #0
 800047a:	d0f9      	beq.n	8000470 <SetSysClock+0x4c>
 800047c:	4b10      	ldr	r3, [pc, #64]	; (80004c0 <SetSysClock+0x9c>)
 800047e:	f240 6202 	movw	r2, #1538	; 0x602
 8000482:	601a      	str	r2, [r3, #0]
 8000484:	4b0b      	ldr	r3, [pc, #44]	; (80004b4 <SetSysClock+0x90>)
 8000486:	689b      	ldr	r3, [r3, #8]
 8000488:	4a0a      	ldr	r2, [pc, #40]	; (80004b4 <SetSysClock+0x90>)
 800048a:	f023 0303 	bic.w	r3, r3, #3
 800048e:	6093      	str	r3, [r2, #8]
 8000490:	4b08      	ldr	r3, [pc, #32]	; (80004b4 <SetSysClock+0x90>)
 8000492:	689b      	ldr	r3, [r3, #8]
 8000494:	4a07      	ldr	r2, [pc, #28]	; (80004b4 <SetSysClock+0x90>)
 8000496:	f043 0302 	orr.w	r3, r3, #2
 800049a:	6093      	str	r3, [r2, #8]
 800049c:	bf00      	nop
 800049e:	4b05      	ldr	r3, [pc, #20]	; (80004b4 <SetSysClock+0x90>)
 80004a0:	689b      	ldr	r3, [r3, #8]
 80004a2:	f003 030c 	and.w	r3, r3, #12
 80004a6:	2b08      	cmp	r3, #8
 80004a8:	d1f9      	bne.n	800049e <SetSysClock+0x7a>
 80004aa:	bf00      	nop
 80004ac:	46bd      	mov	sp, r7
 80004ae:	f85d 7b04 	ldr.w	r7, [sp], #4
 80004b2:	4770      	bx	lr
 80004b4:	40023800 	.word	0x40023800
 80004b8:	40007000 	.word	0x40007000
 80004bc:	08015410 	.word	0x08015410
 80004c0:	40023c00 	.word	0x40023c00

080004c4 <NVIC_SetPriority>:
 80004c4:	b480      	push	{r7}
 80004c6:	b083      	sub	sp, #12
 80004c8:	af00      	add	r7, sp, #0
 80004ca:	4603      	mov	r3, r0
 80004cc:	6039      	str	r1, [r7, #0]
 80004ce:	71fb      	strb	r3, [r7, #7]
 80004d0:	f997 3007 	ldrsb.w	r3, [r7, #7]
 80004d4:	2b00      	cmp	r3, #0
 80004d6:	da0b      	bge.n	80004f0 <NVIC_SetPriority+0x2c>
 80004d8:	683b      	ldr	r3, [r7, #0]
 80004da:	b2da      	uxtb	r2, r3
 80004dc:	490c      	ldr	r1, [pc, #48]	; (8000510 <NVIC_SetPriority+0x4c>)
 80004de:	79fb      	ldrb	r3, [r7, #7]
 80004e0:	f003 030f 	and.w	r3, r3, #15
 80004e4:	3b04      	subs	r3, #4
 80004e6:	0112      	lsls	r2, r2, #4
 80004e8:	b2d2      	uxtb	r2, r2
 80004ea:	440b      	add	r3, r1
 80004ec:	761a      	strb	r2, [r3, #24]
 80004ee:	e009      	b.n	8000504 <NVIC_SetPriority+0x40>
 80004f0:	683b      	ldr	r3, [r7, #0]
 80004f2:	b2da      	uxtb	r2, r3
 80004f4:	4907      	ldr	r1, [pc, #28]	; (8000514 <NVIC_SetPriority+0x50>)
 80004f6:	f997 3007 	ldrsb.w	r3, [r7, #7]
 80004fa:	0112      	lsls	r2, r2, #4
 80004fc:	b2d2      	uxtb	r2, r2
 80004fe:	440b      	add	r3, r1
 8000500:	f883 2300 	strb.w	r2, [r3, #768]	; 0x300
 8000504:	bf00      	nop
 8000506:	370c      	adds	r7, #12
 8000508:	46bd      	mov	sp, r7
 800050a:	f85d 7b04 	ldr.w	r7, [sp], #4
 800050e:	4770      	bx	lr
 8000510:	e000ed00 	.word	0xe000ed00
 8000514:	e000e100 	.word	0xe000e100

08000518 <SysTick_Config>:
 8000518:	b580      	push	{r7, lr}
 800051a:	b082      	sub	sp, #8
 800051c:	af00      	add	r7, sp, #0
 800051e:	6078      	str	r0, [r7, #4]
 8000520:	687b      	ldr	r3, [r7, #4]
 8000522:	3b01      	subs	r3, #1
 8000524:	f1b3 7f80 	cmp.w	r3, #16777216	; 0x1000000
 8000528:	d301      	bcc.n	800052e <SysTick_Config+0x16>
 800052a:	2301      	movs	r3, #1
 800052c:	e00f      	b.n	800054e <SysTick_Config+0x36>
 800052e:	4a0a      	ldr	r2, [pc, #40]	; (8000558 <SysTick_Config+0x40>)
 8000530:	687b      	ldr	r3, [r7, #4]
 8000532:	3b01      	subs	r3, #1
 8000534:	6053      	str	r3, [r2, #4]
 8000536:	210f      	movs	r1, #15
 8000538:	f04f 30ff 	mov.w	r0, #4294967295
 800053c:	f7ff ffc2 	bl	80004c4 <NVIC_SetPriority>
 8000540:	4b05      	ldr	r3, [pc, #20]	; (8000558 <SysTick_Config+0x40>)
 8000542:	2200      	movs	r2, #0
 8000544:	609a      	str	r2, [r3, #8]
 8000546:	4b04      	ldr	r3, [pc, #16]	; (8000558 <SysTick_Config+0x40>)
 8000548:	2207      	movs	r2, #7
 800054a:	601a      	str	r2, [r3, #0]
 800054c:	2300      	movs	r3, #0
 800054e:	4618      	mov	r0, r3
 8000550:	3708      	adds	r7, #8
 8000552:	46bd      	mov	sp, r7
 8000554:	bd80      	pop	{r7, pc}
 8000556:	bf00      	nop
 8000558:	e000e010 	.word	0xe000e010

0800055c <TimerInit>:
 800055c:	b580      	push	{r7, lr}
 800055e:	b084      	sub	sp, #16
 8000560:	af00      	add	r7, sp, #0
 8000562:	463b      	mov	r3, r7
 8000564:	4618      	mov	r0, r3
 8000566:	f002 f895 	bl	8002694 <RCC_GetClocksFreq>
 800056a:	683b      	ldr	r3, [r7, #0]
 800056c:	4a0a      	ldr	r2, [pc, #40]	; (8000598 <TimerInit+0x3c>)
 800056e:	fba2 2303 	umull	r2, r3, r2, r3
 8000572:	099b      	lsrs	r3, r3, #6
 8000574:	4618      	mov	r0, r3
 8000576:	f7ff ffcf 	bl	8000518 <SysTick_Config>
 800057a:	2101      	movs	r1, #1
 800057c:	f04f 30ff 	mov.w	r0, #4294967295
 8000580:	f7ff ffa0 	bl	80004c4 <NVIC_SetPriority>
 8000584:	f44f 72c0 	mov.w	r2, #384	; 0x180
 8000588:	2100      	movs	r1, #0
 800058a:	4804      	ldr	r0, [pc, #16]	; (800059c <TimerInit+0x40>)
 800058c:	f001 ffc2 	bl	8002514 <memsetl>
 8000590:	bf00      	nop
 8000592:	3710      	adds	r7, #16
 8000594:	46bd      	mov	sp, r7
 8000596:	bd80      	pop	{r7, pc}
 8000598:	10624dd3 	.word	0x10624dd3
 800059c:	200000f8 	.word	0x200000f8

080005a0 <TimerStart>:
 80005a0:	b590      	push	{r4, r7, lr}
 80005a2:	b087      	sub	sp, #28
 80005a4:	af00      	add	r7, sp, #0
 80005a6:	60f8      	str	r0, [r7, #12]
 80005a8:	60b9      	str	r1, [r7, #8]
 80005aa:	603b      	str	r3, [r7, #0]
 80005ac:	4613      	mov	r3, r2
 80005ae:	71fb      	strb	r3, [r7, #7]
 80005b0:	2300      	movs	r3, #0
 80005b2:	75fb      	strb	r3, [r7, #23]
 80005b4:	e04c      	b.n	8000650 <TimerStart+0xb0>
 80005b6:	7dfa      	ldrb	r2, [r7, #23]
 80005b8:	4929      	ldr	r1, [pc, #164]	; (8000660 <TimerStart+0xc0>)
 80005ba:	4613      	mov	r3, r2
 80005bc:	005b      	lsls	r3, r3, #1
 80005be:	4413      	add	r3, r2
 80005c0:	00db      	lsls	r3, r3, #3
 80005c2:	440b      	add	r3, r1
 80005c4:	3310      	adds	r3, #16
 80005c6:	681b      	ldr	r3, [r3, #0]
 80005c8:	2b00      	cmp	r3, #0
 80005ca:	d13e      	bne.n	800064a <TimerStart+0xaa>
 80005cc:	7dfa      	ldrb	r2, [r7, #23]
 80005ce:	4924      	ldr	r1, [pc, #144]	; (8000660 <TimerStart+0xc0>)
 80005d0:	4613      	mov	r3, r2
 80005d2:	005b      	lsls	r3, r3, #1
 80005d4:	4413      	add	r3, r2
 80005d6:	00db      	lsls	r3, r3, #3
 80005d8:	440b      	add	r3, r1
 80005da:	68fa      	ldr	r2, [r7, #12]
 80005dc:	601a      	str	r2, [r3, #0]
 80005de:	7dfa      	ldrb	r2, [r7, #23]
 80005e0:	491f      	ldr	r1, [pc, #124]	; (8000660 <TimerStart+0xc0>)
 80005e2:	4613      	mov	r3, r2
 80005e4:	005b      	lsls	r3, r3, #1
 80005e6:	4413      	add	r3, r2
 80005e8:	00db      	lsls	r3, r3, #3
 80005ea:	440b      	add	r3, r1
 80005ec:	3310      	adds	r3, #16
 80005ee:	683a      	ldr	r2, [r7, #0]
 80005f0:	601a      	str	r2, [r3, #0]
 80005f2:	7dfa      	ldrb	r2, [r7, #23]
 80005f4:	491a      	ldr	r1, [pc, #104]	; (8000660 <TimerStart+0xc0>)
 80005f6:	4613      	mov	r3, r2
 80005f8:	005b      	lsls	r3, r3, #1
 80005fa:	4413      	add	r3, r2
 80005fc:	00db      	lsls	r3, r3, #3
 80005fe:	440b      	add	r3, r1
 8000600:	330c      	adds	r3, #12
 8000602:	79fa      	ldrb	r2, [r7, #7]
 8000604:	701a      	strb	r2, [r3, #0]
 8000606:	7dfa      	ldrb	r2, [r7, #23]
 8000608:	4915      	ldr	r1, [pc, #84]	; (8000660 <TimerStart+0xc0>)
 800060a:	4613      	mov	r3, r2
 800060c:	005b      	lsls	r3, r3, #1
 800060e:	4413      	add	r3, r2
 8000610:	00db      	lsls	r3, r3, #3
 8000612:	440b      	add	r3, r1
 8000614:	3314      	adds	r3, #20
 8000616:	6aba      	ldr	r2, [r7, #40]	; 0x28
 8000618:	601a      	str	r2, [r3, #0]
 800061a:	7dfc      	ldrb	r4, [r7, #23]
 800061c:	f000 f872 	bl	8000704 <GetMilSecTick>
 8000620:	4601      	mov	r1, r0
 8000622:	4a0f      	ldr	r2, [pc, #60]	; (8000660 <TimerStart+0xc0>)
 8000624:	4623      	mov	r3, r4
 8000626:	005b      	lsls	r3, r3, #1
 8000628:	4423      	add	r3, r4
 800062a:	00db      	lsls	r3, r3, #3
 800062c:	4413      	add	r3, r2
 800062e:	3304      	adds	r3, #4
 8000630:	6019      	str	r1, [r3, #0]
 8000632:	7dfa      	ldrb	r2, [r7, #23]
 8000634:	490a      	ldr	r1, [pc, #40]	; (8000660 <TimerStart+0xc0>)
 8000636:	4613      	mov	r3, r2
 8000638:	005b      	lsls	r3, r3, #1
 800063a:	4413      	add	r3, r2
 800063c:	00db      	lsls	r3, r3, #3
 800063e:	440b      	add	r3, r1
 8000640:	3308      	adds	r3, #8
 8000642:	68ba      	ldr	r2, [r7, #8]
 8000644:	601a      	str	r2, [r3, #0]
 8000646:	7dfb      	ldrb	r3, [r7, #23]
 8000648:	e006      	b.n	8000658 <TimerStart+0xb8>
 800064a:	7dfb      	ldrb	r3, [r7, #23]
 800064c:	3301      	adds	r3, #1
 800064e:	75fb      	strb	r3, [r7, #23]
 8000650:	7dfb      	ldrb	r3, [r7, #23]
 8000652:	2b0f      	cmp	r3, #15
 8000654:	d9af      	bls.n	80005b6 <TimerStart+0x16>
 8000656:	23ff      	movs	r3, #255	; 0xff
 8000658:	4618      	mov	r0, r3
 800065a:	371c      	adds	r7, #28
 800065c:	46bd      	mov	sp, r7
 800065e:	bd90      	pop	{r4, r7, pc}
 8000660:	200000f8 	.word	0x200000f8

08000664 <TimerStop>:
 8000664:	b480      	push	{r7}
 8000666:	b083      	sub	sp, #12
 8000668:	af00      	add	r7, sp, #0
 800066a:	4603      	mov	r3, r0
 800066c:	71fb      	strb	r3, [r7, #7]
 800066e:	79fb      	ldrb	r3, [r7, #7]
 8000670:	2b0f      	cmp	r3, #15
 8000672:	d80a      	bhi.n	800068a <TimerStop+0x26>
 8000674:	79fa      	ldrb	r2, [r7, #7]
 8000676:	4922      	ldr	r1, [pc, #136]	; (8000700 <TimerStop+0x9c>)
 8000678:	4613      	mov	r3, r2
 800067a:	005b      	lsls	r3, r3, #1
 800067c:	4413      	add	r3, r2
 800067e:	00db      	lsls	r3, r3, #3
 8000680:	440b      	add	r3, r1
 8000682:	3310      	adds	r3, #16
 8000684:	681b      	ldr	r3, [r3, #0]
 8000686:	2b00      	cmp	r3, #0
 8000688:	d101      	bne.n	800068e <TimerStop+0x2a>
 800068a:	2300      	movs	r3, #0
 800068c:	e031      	b.n	80006f2 <TimerStop+0x8e>
 800068e:	79fa      	ldrb	r2, [r7, #7]
 8000690:	491b      	ldr	r1, [pc, #108]	; (8000700 <TimerStop+0x9c>)
 8000692:	4613      	mov	r3, r2
 8000694:	005b      	lsls	r3, r3, #1
 8000696:	4413      	add	r3, r2
 8000698:	00db      	lsls	r3, r3, #3
 800069a:	440b      	add	r3, r1
 800069c:	2200      	movs	r2, #0
 800069e:	601a      	str	r2, [r3, #0]
 80006a0:	79fa      	ldrb	r2, [r7, #7]
 80006a2:	4917      	ldr	r1, [pc, #92]	; (8000700 <TimerStop+0x9c>)
 80006a4:	4613      	mov	r3, r2
 80006a6:	005b      	lsls	r3, r3, #1
 80006a8:	4413      	add	r3, r2
 80006aa:	00db      	lsls	r3, r3, #3
 80006ac:	440b      	add	r3, r1
 80006ae:	3310      	adds	r3, #16
 80006b0:	2200      	movs	r2, #0
 80006b2:	601a      	str	r2, [r3, #0]
 80006b4:	79fa      	ldrb	r2, [r7, #7]
 80006b6:	4912      	ldr	r1, [pc, #72]	; (8000700 <TimerStop+0x9c>)
 80006b8:	4613      	mov	r3, r2
 80006ba:	005b      	lsls	r3, r3, #1
 80006bc:	4413      	add	r3, r2
 80006be:	00db      	lsls	r3, r3, #3
 80006c0:	440b      	add	r3, r1
 80006c2:	330c      	adds	r3, #12
 80006c4:	2200      	movs	r2, #0
 80006c6:	701a      	strb	r2, [r3, #0]
 80006c8:	79fa      	ldrb	r2, [r7, #7]
 80006ca:	490d      	ldr	r1, [pc, #52]	; (8000700 <TimerStop+0x9c>)
 80006cc:	4613      	mov	r3, r2
 80006ce:	005b      	lsls	r3, r3, #1
 80006d0:	4413      	add	r3, r2
 80006d2:	00db      	lsls	r3, r3, #3
 80006d4:	440b      	add	r3, r1
 80006d6:	3308      	adds	r3, #8
 80006d8:	2200      	movs	r2, #0
 80006da:	601a      	str	r2, [r3, #0]
 80006dc:	79fa      	ldrb	r2, [r7, #7]
 80006de:	4908      	ldr	r1, [pc, #32]	; (8000700 <TimerStop+0x9c>)
 80006e0:	4613      	mov	r3, r2
 80006e2:	005b      	lsls	r3, r3, #1
 80006e4:	4413      	add	r3, r2
 80006e6:	00db      	lsls	r3, r3, #3
 80006e8:	440b      	add	r3, r1
 80006ea:	3304      	adds	r3, #4
 80006ec:	2200      	movs	r2, #0
 80006ee:	601a      	str	r2, [r3, #0]
 80006f0:	2301      	movs	r3, #1
 80006f2:	4618      	mov	r0, r3
 80006f4:	370c      	adds	r7, #12
 80006f6:	46bd      	mov	sp, r7
 80006f8:	f85d 7b04 	ldr.w	r7, [sp], #4
 80006fc:	4770      	bx	lr
 80006fe:	bf00      	nop
 8000700:	200000f8 	.word	0x200000f8

08000704 <GetMilSecTick>:
 8000704:	b480      	push	{r7}
 8000706:	af00      	add	r7, sp, #0
 8000708:	4b03      	ldr	r3, [pc, #12]	; (8000718 <GetMilSecTick+0x14>)
 800070a:	681b      	ldr	r3, [r3, #0]
 800070c:	4618      	mov	r0, r3
 800070e:	46bd      	mov	sp, r7
 8000710:	f85d 7b04 	ldr.w	r7, [sp], #4
 8000714:	4770      	bx	lr
 8000716:	bf00      	nop
 8000718:	20000278 	.word	0x20000278

0800071c <processTimerScheduler>:
 800071c:	b580      	push	{r7, lr}
 800071e:	b084      	sub	sp, #16
 8000720:	af00      	add	r7, sp, #0
 8000722:	2300      	movs	r3, #0
 8000724:	73fb      	strb	r3, [r7, #15]
 8000726:	e068      	b.n	80007fa <processTimerScheduler+0xde>
 8000728:	7bfa      	ldrb	r2, [r7, #15]
 800072a:	4937      	ldr	r1, [pc, #220]	; (8000808 <processTimerScheduler+0xec>)
 800072c:	4613      	mov	r3, r2
 800072e:	005b      	lsls	r3, r3, #1
 8000730:	4413      	add	r3, r2
 8000732:	00db      	lsls	r3, r3, #3
 8000734:	440b      	add	r3, r1
 8000736:	3310      	adds	r3, #16
 8000738:	681b      	ldr	r3, [r3, #0]
 800073a:	2b00      	cmp	r3, #0
 800073c:	d05a      	beq.n	80007f4 <processTimerScheduler+0xd8>
 800073e:	7bfb      	ldrb	r3, [r7, #15]
 8000740:	4618      	mov	r0, r3
 8000742:	f000 f863 	bl	800080c <TimeExpired>
 8000746:	4603      	mov	r3, r0
 8000748:	2b00      	cmp	r3, #0
 800074a:	d053      	beq.n	80007f4 <processTimerScheduler+0xd8>
 800074c:	7bfa      	ldrb	r2, [r7, #15]
 800074e:	492e      	ldr	r1, [pc, #184]	; (8000808 <processTimerScheduler+0xec>)
 8000750:	4613      	mov	r3, r2
 8000752:	005b      	lsls	r3, r3, #1
 8000754:	4413      	add	r3, r2
 8000756:	00db      	lsls	r3, r3, #3
 8000758:	440b      	add	r3, r1
 800075a:	3310      	adds	r3, #16
 800075c:	681b      	ldr	r3, [r3, #0]
 800075e:	60bb      	str	r3, [r7, #8]
 8000760:	7bfa      	ldrb	r2, [r7, #15]
 8000762:	4929      	ldr	r1, [pc, #164]	; (8000808 <processTimerScheduler+0xec>)
 8000764:	4613      	mov	r3, r2
 8000766:	005b      	lsls	r3, r3, #1
 8000768:	4413      	add	r3, r2
 800076a:	00db      	lsls	r3, r3, #3
 800076c:	440b      	add	r3, r1
 800076e:	3314      	adds	r3, #20
 8000770:	681b      	ldr	r3, [r3, #0]
 8000772:	607b      	str	r3, [r7, #4]
 8000774:	7bfa      	ldrb	r2, [r7, #15]
 8000776:	4924      	ldr	r1, [pc, #144]	; (8000808 <processTimerScheduler+0xec>)
 8000778:	4613      	mov	r3, r2
 800077a:	005b      	lsls	r3, r3, #1
 800077c:	4413      	add	r3, r2
 800077e:	00db      	lsls	r3, r3, #3
 8000780:	440b      	add	r3, r1
 8000782:	330c      	adds	r3, #12
 8000784:	781b      	ldrb	r3, [r3, #0]
 8000786:	b2db      	uxtb	r3, r3
 8000788:	2bff      	cmp	r3, #255	; 0xff
 800078a:	d020      	beq.n	80007ce <processTimerScheduler+0xb2>
 800078c:	7bfa      	ldrb	r2, [r7, #15]
 800078e:	491e      	ldr	r1, [pc, #120]	; (8000808 <processTimerScheduler+0xec>)
 8000790:	4613      	mov	r3, r2
 8000792:	005b      	lsls	r3, r3, #1
 8000794:	4413      	add	r3, r2
 8000796:	00db      	lsls	r3, r3, #3
 8000798:	440b      	add	r3, r1
 800079a:	330c      	adds	r3, #12
 800079c:	781b      	ldrb	r3, [r3, #0]
 800079e:	b2db      	uxtb	r3, r3
 80007a0:	2b00      	cmp	r3, #0
 80007a2:	d014      	beq.n	80007ce <processTimerScheduler+0xb2>
 80007a4:	7bfa      	ldrb	r2, [r7, #15]
 80007a6:	4918      	ldr	r1, [pc, #96]	; (8000808 <processTimerScheduler+0xec>)
 80007a8:	4613      	mov	r3, r2
 80007aa:	005b      	lsls	r3, r3, #1
 80007ac:	4413      	add	r3, r2
 80007ae:	00db      	lsls	r3, r3, #3
 80007b0:	440b      	add	r3, r1
 80007b2:	330c      	adds	r3, #12
 80007b4:	781b      	ldrb	r3, [r3, #0]
 80007b6:	b2db      	uxtb	r3, r3
 80007b8:	3b01      	subs	r3, #1
 80007ba:	b2d8      	uxtb	r0, r3
 80007bc:	4912      	ldr	r1, [pc, #72]	; (8000808 <processTimerScheduler+0xec>)
 80007be:	4613      	mov	r3, r2
 80007c0:	005b      	lsls	r3, r3, #1
 80007c2:	4413      	add	r3, r2
 80007c4:	00db      	lsls	r3, r3, #3
 80007c6:	440b      	add	r3, r1
 80007c8:	330c      	adds	r3, #12
 80007ca:	4602      	mov	r2, r0
 80007cc:	701a      	strb	r2, [r3, #0]
 80007ce:	7bfa      	ldrb	r2, [r7, #15]
 80007d0:	490d      	ldr	r1, [pc, #52]	; (8000808 <processTimerScheduler+0xec>)
 80007d2:	4613      	mov	r3, r2
 80007d4:	005b      	lsls	r3, r3, #1
 80007d6:	4413      	add	r3, r2
 80007d8:	00db      	lsls	r3, r3, #3
 80007da:	440b      	add	r3, r1
 80007dc:	330c      	adds	r3, #12
 80007de:	781b      	ldrb	r3, [r3, #0]
 80007e0:	b2db      	uxtb	r3, r3
 80007e2:	2b00      	cmp	r3, #0
 80007e4:	d103      	bne.n	80007ee <processTimerScheduler+0xd2>
 80007e6:	7bfb      	ldrb	r3, [r7, #15]
 80007e8:	4618      	mov	r0, r3
 80007ea:	f7ff ff3b 	bl	8000664 <TimerStop>
 80007ee:	68bb      	ldr	r3, [r7, #8]
 80007f0:	6878      	ldr	r0, [r7, #4]
 80007f2:	4798      	blx	r3
 80007f4:	7bfb      	ldrb	r3, [r7, #15]
 80007f6:	3301      	adds	r3, #1
 80007f8:	73fb      	strb	r3, [r7, #15]
 80007fa:	7bfb      	ldrb	r3, [r7, #15]
 80007fc:	2b0f      	cmp	r3, #15
 80007fe:	d993      	bls.n	8000728 <processTimerScheduler+0xc>
 8000800:	bf00      	nop
 8000802:	3710      	adds	r7, #16
 8000804:	46bd      	mov	sp, r7
 8000806:	bd80      	pop	{r7, pc}
 8000808:	200000f8 	.word	0x200000f8

0800080c <TimeExpired>:
 800080c:	b580      	push	{r7, lr}
 800080e:	b084      	sub	sp, #16
 8000810:	af00      	add	r7, sp, #0
 8000812:	4603      	mov	r3, r0
 8000814:	71fb      	strb	r3, [r7, #7]
 8000816:	2300      	movs	r3, #0
 8000818:	60fb      	str	r3, [r7, #12]
 800081a:	b672      	cpsid	i
 800081c:	f7ff ff72 	bl	8000704 <GetMilSecTick>
 8000820:	60b8      	str	r0, [r7, #8]
 8000822:	79fb      	ldrb	r3, [r7, #7]
 8000824:	2b0f      	cmp	r3, #15
 8000826:	d80a      	bhi.n	800083e <TimeExpired+0x32>
 8000828:	79fa      	ldrb	r2, [r7, #7]
 800082a:	492a      	ldr	r1, [pc, #168]	; (80008d4 <TimeExpired+0xc8>)
 800082c:	4613      	mov	r3, r2
 800082e:	005b      	lsls	r3, r3, #1
 8000830:	4413      	add	r3, r2
 8000832:	00db      	lsls	r3, r3, #3
 8000834:	440b      	add	r3, r1
 8000836:	3310      	adds	r3, #16
 8000838:	681b      	ldr	r3, [r3, #0]
 800083a:	2b00      	cmp	r3, #0
 800083c:	d102      	bne.n	8000844 <TimeExpired+0x38>
 800083e:	b662      	cpsie	i
 8000840:	2300      	movs	r3, #0
 8000842:	e042      	b.n	80008ca <TimeExpired+0xbe>
 8000844:	79fa      	ldrb	r2, [r7, #7]
 8000846:	4923      	ldr	r1, [pc, #140]	; (80008d4 <TimeExpired+0xc8>)
 8000848:	4613      	mov	r3, r2
 800084a:	005b      	lsls	r3, r3, #1
 800084c:	4413      	add	r3, r2
 800084e:	00db      	lsls	r3, r3, #3
 8000850:	440b      	add	r3, r1
 8000852:	3304      	adds	r3, #4
 8000854:	681b      	ldr	r3, [r3, #0]
 8000856:	68ba      	ldr	r2, [r7, #8]
 8000858:	429a      	cmp	r2, r3
 800085a:	d30c      	bcc.n	8000876 <TimeExpired+0x6a>
 800085c:	79fa      	ldrb	r2, [r7, #7]
 800085e:	491d      	ldr	r1, [pc, #116]	; (80008d4 <TimeExpired+0xc8>)
 8000860:	4613      	mov	r3, r2
 8000862:	005b      	lsls	r3, r3, #1
 8000864:	4413      	add	r3, r2
 8000866:	00db      	lsls	r3, r3, #3
 8000868:	440b      	add	r3, r1
 800086a:	3304      	adds	r3, #4
 800086c:	681b      	ldr	r3, [r3, #0]
 800086e:	68ba      	ldr	r2, [r7, #8]
 8000870:	1ad3      	subs	r3, r2, r3
 8000872:	60fb      	str	r3, [r7, #12]
 8000874:	e00e      	b.n	8000894 <TimeExpired+0x88>
 8000876:	79fa      	ldrb	r2, [r7, #7]
 8000878:	4916      	ldr	r1, [pc, #88]	; (80008d4 <TimeExpired+0xc8>)
 800087a:	4613      	mov	r3, r2
 800087c:	005b      	lsls	r3, r3, #1
 800087e:	4413      	add	r3, r2
 8000880:	00db      	lsls	r3, r3, #3
 8000882:	440b      	add	r3, r1
 8000884:	3304      	adds	r3, #4
 8000886:	681a      	ldr	r2, [r3, #0]
 8000888:	68bb      	ldr	r3, [r7, #8]
 800088a:	1ad3      	subs	r3, r2, r3
 800088c:	60fb      	str	r3, [r7, #12]
 800088e:	68fb      	ldr	r3, [r7, #12]
 8000890:	43db      	mvns	r3, r3
 8000892:	60fb      	str	r3, [r7, #12]
 8000894:	79fa      	ldrb	r2, [r7, #7]
 8000896:	490f      	ldr	r1, [pc, #60]	; (80008d4 <TimeExpired+0xc8>)
 8000898:	4613      	mov	r3, r2
 800089a:	005b      	lsls	r3, r3, #1
 800089c:	4413      	add	r3, r2
 800089e:	00db      	lsls	r3, r3, #3
 80008a0:	440b      	add	r3, r1
 80008a2:	3308      	adds	r3, #8
 80008a4:	681b      	ldr	r3, [r3, #0]
 80008a6:	68fa      	ldr	r2, [r7, #12]
 80008a8:	429a      	cmp	r2, r3
 80008aa:	d202      	bcs.n	80008b2 <TimeExpired+0xa6>
 80008ac:	b662      	cpsie	i
 80008ae:	2300      	movs	r3, #0
 80008b0:	e00b      	b.n	80008ca <TimeExpired+0xbe>
 80008b2:	79fa      	ldrb	r2, [r7, #7]
 80008b4:	4907      	ldr	r1, [pc, #28]	; (80008d4 <TimeExpired+0xc8>)
 80008b6:	4613      	mov	r3, r2
 80008b8:	005b      	lsls	r3, r3, #1
 80008ba:	4413      	add	r3, r2
 80008bc:	00db      	lsls	r3, r3, #3
 80008be:	440b      	add	r3, r1
 80008c0:	3304      	adds	r3, #4
 80008c2:	68ba      	ldr	r2, [r7, #8]
 80008c4:	601a      	str	r2, [r3, #0]
 80008c6:	b662      	cpsie	i
 80008c8:	2301      	movs	r3, #1
 80008ca:	4618      	mov	r0, r3
 80008cc:	3710      	adds	r7, #16
 80008ce:	46bd      	mov	sp, r7
 80008d0:	bd80      	pop	{r7, pc}
 80008d2:	bf00      	nop
 80008d4:	200000f8 	.word	0x200000f8

080008d8 <SysTick_Handler>:
 80008d8:	b480      	push	{r7}
 80008da:	af00      	add	r7, sp, #0
 80008dc:	4b04      	ldr	r3, [pc, #16]	; (80008f0 <SysTick_Handler+0x18>)
 80008de:	681b      	ldr	r3, [r3, #0]
 80008e0:	3301      	adds	r3, #1
 80008e2:	4a03      	ldr	r2, [pc, #12]	; (80008f0 <SysTick_Handler+0x18>)
 80008e4:	6013      	str	r3, [r2, #0]
 80008e6:	bf00      	nop
 80008e8:	46bd      	mov	sp, r7
 80008ea:	f85d 7b04 	ldr.w	r7, [sp], #4
 80008ee:	4770      	bx	lr
 80008f0:	20000278 	.word	0x20000278

080008f4 <delayMicroseconds>:
 80008f4:	b480      	push	{r7}
 80008f6:	b083      	sub	sp, #12
 80008f8:	af00      	add	r7, sp, #0
 80008fa:	6078      	str	r0, [r7, #4]
 80008fc:	bf00      	nop
 80008fe:	370c      	adds	r7, #12
 8000900:	46bd      	mov	sp, r7
 8000902:	f85d 7b04 	ldr.w	r7, [sp], #4
 8000906:	4770      	bx	lr

08000908 <ucg_gpio_init>:
 8000908:	b580      	push	{r7, lr}
 800090a:	b082      	sub	sp, #8
 800090c:	af00      	add	r7, sp, #0
 800090e:	2101      	movs	r1, #1
 8000910:	2007      	movs	r0, #7
 8000912:	f001 ff67 	bl	80027e4 <RCC_AHB1PeriphClockCmd>
 8000916:	2301      	movs	r3, #1
 8000918:	713b      	strb	r3, [r7, #4]
 800091a:	2303      	movs	r3, #3
 800091c:	717b      	strb	r3, [r7, #5]
 800091e:	2300      	movs	r3, #0
 8000920:	71bb      	strb	r3, [r7, #6]
 8000922:	2300      	movs	r3, #0
 8000924:	71fb      	strb	r3, [r7, #7]
 8000926:	f44f 7368 	mov.w	r3, #928	; 0x3a0
 800092a:	603b      	str	r3, [r7, #0]
 800092c:	463b      	mov	r3, r7
 800092e:	4619      	mov	r1, r3
 8000930:	480a      	ldr	r0, [pc, #40]	; (800095c <ucg_gpio_init+0x54>)
 8000932:	f001 fe08 	bl	8002546 <GPIO_Init>
 8000936:	f44f 6388 	mov.w	r3, #1088	; 0x440
 800093a:	603b      	str	r3, [r7, #0]
 800093c:	463b      	mov	r3, r7
 800093e:	4619      	mov	r1, r3
 8000940:	4807      	ldr	r0, [pc, #28]	; (8000960 <ucg_gpio_init+0x58>)
 8000942:	f001 fe00 	bl	8002546 <GPIO_Init>
 8000946:	2380      	movs	r3, #128	; 0x80
 8000948:	603b      	str	r3, [r7, #0]
 800094a:	463b      	mov	r3, r7
 800094c:	4619      	mov	r1, r3
 800094e:	4805      	ldr	r0, [pc, #20]	; (8000964 <ucg_gpio_init+0x5c>)
 8000950:	f001 fdf9 	bl	8002546 <GPIO_Init>
 8000954:	bf00      	nop
 8000956:	3708      	adds	r7, #8
 8000958:	46bd      	mov	sp, r7
 800095a:	bd80      	pop	{r7, pc}
 800095c:	40020000 	.word	0x40020000
 8000960:	40020400 	.word	0x40020400
 8000964:	40020800 	.word	0x40020800

08000968 <ucg_com_arduino_send_generic_SW_SPI>:
 8000968:	b580      	push	{r7, lr}
 800096a:	b084      	sub	sp, #16
 800096c:	af00      	add	r7, sp, #0
 800096e:	6078      	str	r0, [r7, #4]
 8000970:	460b      	mov	r3, r1
 8000972:	70fb      	strb	r3, [r7, #3]
 8000974:	2308      	movs	r3, #8
 8000976:	73fb      	strb	r3, [r7, #15]
 8000978:	f997 3003 	ldrsb.w	r3, [r7, #3]
 800097c:	2b00      	cmp	r3, #0
 800097e:	da05      	bge.n	800098c <ucg_com_arduino_send_generic_SW_SPI+0x24>
 8000980:	2201      	movs	r2, #1
 8000982:	2180      	movs	r1, #128	; 0x80
 8000984:	4814      	ldr	r0, [pc, #80]	; (80009d8 <ucg_com_arduino_send_generic_SW_SPI+0x70>)
 8000986:	f001 fe6c 	bl	8002662 <GPIO_WriteBit>
 800098a:	e004      	b.n	8000996 <ucg_com_arduino_send_generic_SW_SPI+0x2e>
 800098c:	2200      	movs	r2, #0
 800098e:	2180      	movs	r1, #128	; 0x80
 8000990:	4811      	ldr	r0, [pc, #68]	; (80009d8 <ucg_com_arduino_send_generic_SW_SPI+0x70>)
 8000992:	f001 fe66 	bl	8002662 <GPIO_WriteBit>
 8000996:	2001      	movs	r0, #1
 8000998:	f7ff ffac 	bl	80008f4 <delayMicroseconds>
 800099c:	2201      	movs	r2, #1
 800099e:	2120      	movs	r1, #32
 80009a0:	480d      	ldr	r0, [pc, #52]	; (80009d8 <ucg_com_arduino_send_generic_SW_SPI+0x70>)
 80009a2:	f001 fe5e 	bl	8002662 <GPIO_WriteBit>
 80009a6:	2001      	movs	r0, #1
 80009a8:	f7ff ffa4 	bl	80008f4 <delayMicroseconds>
 80009ac:	7bfb      	ldrb	r3, [r7, #15]
 80009ae:	3b01      	subs	r3, #1
 80009b0:	73fb      	strb	r3, [r7, #15]
 80009b2:	2200      	movs	r2, #0
 80009b4:	2120      	movs	r1, #32
 80009b6:	4808      	ldr	r0, [pc, #32]	; (80009d8 <ucg_com_arduino_send_generic_SW_SPI+0x70>)
 80009b8:	f001 fe53 	bl	8002662 <GPIO_WriteBit>
 80009bc:	2001      	movs	r0, #1
 80009be:	f7ff ff99 	bl	80008f4 <delayMicroseconds>
 80009c2:	78fb      	ldrb	r3, [r7, #3]
 80009c4:	005b      	lsls	r3, r3, #1
 80009c6:	70fb      	strb	r3, [r7, #3]
 80009c8:	7bfb      	ldrb	r3, [r7, #15]
 80009ca:	2b00      	cmp	r3, #0
 80009cc:	d1d4      	bne.n	8000978 <ucg_com_arduino_send_generic_SW_SPI+0x10>
 80009ce:	bf00      	nop
 80009d0:	3710      	adds	r7, #16
 80009d2:	46bd      	mov	sp, r7
 80009d4:	bd80      	pop	{r7, pc}
 80009d6:	bf00      	nop
 80009d8:	40020000 	.word	0x40020000

080009dc <ucg_com_arduino_generic_SW_SPI>:
 80009dc:	b580      	push	{r7, lr}
 80009de:	b084      	sub	sp, #16
 80009e0:	af00      	add	r7, sp, #0
 80009e2:	60f8      	str	r0, [r7, #12]
 80009e4:	607b      	str	r3, [r7, #4]
 80009e6:	460b      	mov	r3, r1
 80009e8:	817b      	strh	r3, [r7, #10]
 80009ea:	4613      	mov	r3, r2
 80009ec:	813b      	strh	r3, [r7, #8]
 80009ee:	f9b7 300a 	ldrsh.w	r3, [r7, #10]
 80009f2:	3b0a      	subs	r3, #10
 80009f4:	2b0b      	cmp	r3, #11
 80009f6:	f200 80dc 	bhi.w	8000bb2 <ucg_com_arduino_generic_SW_SPI+0x1d6>
 80009fa:	a201      	add	r2, pc, #4	; (adr r2, 8000a00 <ucg_com_arduino_generic_SW_SPI+0x24>)
 80009fc:	f852 f023 	ldr.w	pc, [r2, r3, lsl #2]
 8000a00:	08000a31 	.word	0x08000a31
 8000a04:	08000bb3 	.word	0x08000bb3
 8000a08:	08000a83 	.word	0x08000a83
 8000a0c:	08000a8d 	.word	0x08000a8d
 8000a10:	08000a9d 	.word	0x08000a9d
 8000a14:	08000aad 	.word	0x08000aad
 8000a18:	08000abf 	.word	0x08000abf
 8000a1c:	08000adf 	.word	0x08000adf
 8000a20:	08000b07 	.word	0x08000b07
 8000a24:	08000b3d 	.word	0x08000b3d
 8000a28:	08000b5b 	.word	0x08000b5b
 8000a2c:	08000bab 	.word	0x08000bab
 8000a30:	f7ff ff6a 	bl	8000908 <ucg_gpio_init>
 8000a34:	2201      	movs	r2, #1
 8000a36:	2180      	movs	r1, #128	; 0x80
 8000a38:	4860      	ldr	r0, [pc, #384]	; (8000bbc <ucg_com_arduino_generic_SW_SPI+0x1e0>)
 8000a3a:	f001 fe12 	bl	8002662 <GPIO_WriteBit>
 8000a3e:	2201      	movs	r2, #1
 8000a40:	2140      	movs	r1, #64	; 0x40
 8000a42:	485f      	ldr	r0, [pc, #380]	; (8000bc0 <ucg_com_arduino_generic_SW_SPI+0x1e4>)
 8000a44:	f001 fe0d 	bl	8002662 <GPIO_WriteBit>
 8000a48:	2201      	movs	r2, #1
 8000a4a:	2180      	movs	r1, #128	; 0x80
 8000a4c:	485d      	ldr	r0, [pc, #372]	; (8000bc4 <ucg_com_arduino_generic_SW_SPI+0x1e8>)
 8000a4e:	f001 fe08 	bl	8002662 <GPIO_WriteBit>
 8000a52:	2201      	movs	r2, #1
 8000a54:	f44f 7100 	mov.w	r1, #512	; 0x200
 8000a58:	4858      	ldr	r0, [pc, #352]	; (8000bbc <ucg_com_arduino_generic_SW_SPI+0x1e0>)
 8000a5a:	f001 fe02 	bl	8002662 <GPIO_WriteBit>
 8000a5e:	2200      	movs	r2, #0
 8000a60:	2120      	movs	r1, #32
 8000a62:	4856      	ldr	r0, [pc, #344]	; (8000bbc <ucg_com_arduino_generic_SW_SPI+0x1e0>)
 8000a64:	f001 fdfd 	bl	8002662 <GPIO_WriteBit>
 8000a68:	2201      	movs	r2, #1
 8000a6a:	f44f 6180 	mov.w	r1, #1024	; 0x400
 8000a6e:	4854      	ldr	r0, [pc, #336]	; (8000bc0 <ucg_com_arduino_generic_SW_SPI+0x1e4>)
 8000a70:	f001 fdf7 	bl	8002662 <GPIO_WriteBit>
 8000a74:	2201      	movs	r2, #1
 8000a76:	f44f 7180 	mov.w	r1, #256	; 0x100
 8000a7a:	4850      	ldr	r0, [pc, #320]	; (8000bbc <ucg_com_arduino_generic_SW_SPI+0x1e0>)
 8000a7c:	f001 fdf1 	bl	8002662 <GPIO_WriteBit>
 8000a80:	e097      	b.n	8000bb2 <ucg_com_arduino_generic_SW_SPI+0x1d6>
 8000a82:	893b      	ldrh	r3, [r7, #8]
 8000a84:	4618      	mov	r0, r3
 8000a86:	f7ff ff35 	bl	80008f4 <delayMicroseconds>
 8000a8a:	e092      	b.n	8000bb2 <ucg_com_arduino_generic_SW_SPI+0x1d6>
 8000a8c:	893b      	ldrh	r3, [r7, #8]
 8000a8e:	b2db      	uxtb	r3, r3
 8000a90:	461a      	mov	r2, r3
 8000a92:	2180      	movs	r1, #128	; 0x80
 8000a94:	484b      	ldr	r0, [pc, #300]	; (8000bc4 <ucg_com_arduino_generic_SW_SPI+0x1e8>)
 8000a96:	f001 fde4 	bl	8002662 <GPIO_WriteBit>
 8000a9a:	e08a      	b.n	8000bb2 <ucg_com_arduino_generic_SW_SPI+0x1d6>
 8000a9c:	893b      	ldrh	r3, [r7, #8]
 8000a9e:	b2db      	uxtb	r3, r3
 8000aa0:	461a      	mov	r2, r3
 8000aa2:	2140      	movs	r1, #64	; 0x40
 8000aa4:	4846      	ldr	r0, [pc, #280]	; (8000bc0 <ucg_com_arduino_generic_SW_SPI+0x1e4>)
 8000aa6:	f001 fddc 	bl	8002662 <GPIO_WriteBit>
 8000aaa:	e082      	b.n	8000bb2 <ucg_com_arduino_generic_SW_SPI+0x1d6>
 8000aac:	893b      	ldrh	r3, [r7, #8]
 8000aae:	b2db      	uxtb	r3, r3
 8000ab0:	461a      	mov	r2, r3
 8000ab2:	f44f 7100 	mov.w	r1, #512	; 0x200
 8000ab6:	4841      	ldr	r0, [pc, #260]	; (8000bbc <ucg_com_arduino_generic_SW_SPI+0x1e0>)
 8000ab8:	f001 fdd3 	bl	8002662 <GPIO_WriteBit>
 8000abc:	e079      	b.n	8000bb2 <ucg_com_arduino_generic_SW_SPI+0x1d6>
 8000abe:	893b      	ldrh	r3, [r7, #8]
 8000ac0:	b2db      	uxtb	r3, r3
 8000ac2:	4619      	mov	r1, r3
 8000ac4:	68f8      	ldr	r0, [r7, #12]
 8000ac6:	f7ff ff4f 	bl	8000968 <ucg_com_arduino_send_generic_SW_SPI>
 8000aca:	e072      	b.n	8000bb2 <ucg_com_arduino_generic_SW_SPI+0x1d6>
 8000acc:	687b      	ldr	r3, [r7, #4]
 8000ace:	781b      	ldrb	r3, [r3, #0]
 8000ad0:	4619      	mov	r1, r3
 8000ad2:	68f8      	ldr	r0, [r7, #12]
 8000ad4:	f7ff ff48 	bl	8000968 <ucg_com_arduino_send_generic_SW_SPI>
 8000ad8:	893b      	ldrh	r3, [r7, #8]
 8000ada:	3b01      	subs	r3, #1
 8000adc:	813b      	strh	r3, [r7, #8]
 8000ade:	893b      	ldrh	r3, [r7, #8]
 8000ae0:	2b00      	cmp	r3, #0
 8000ae2:	d1f3      	bne.n	8000acc <ucg_com_arduino_generic_SW_SPI+0xf0>
 8000ae4:	e065      	b.n	8000bb2 <ucg_com_arduino_generic_SW_SPI+0x1d6>
 8000ae6:	687b      	ldr	r3, [r7, #4]
 8000ae8:	781b      	ldrb	r3, [r3, #0]
 8000aea:	4619      	mov	r1, r3
 8000aec:	68f8      	ldr	r0, [r7, #12]
 8000aee:	f7ff ff3b 	bl	8000968 <ucg_com_arduino_send_generic_SW_SPI>
 8000af2:	687b      	ldr	r3, [r7, #4]
 8000af4:	3301      	adds	r3, #1
 8000af6:	781b      	ldrb	r3, [r3, #0]
 8000af8:	4619      	mov	r1, r3
 8000afa:	68f8      	ldr	r0, [r7, #12]
 8000afc:	f7ff ff34 	bl	8000968 <ucg_com_arduino_send_generic_SW_SPI>
 8000b00:	893b      	ldrh	r3, [r7, #8]
 8000b02:	3b01      	subs	r3, #1
 8000b04:	813b      	strh	r3, [r7, #8]
 8000b06:	893b      	ldrh	r3, [r7, #8]
 8000b08:	2b00      	cmp	r3, #0
 8000b0a:	d1ec      	bne.n	8000ae6 <ucg_com_arduino_generic_SW_SPI+0x10a>
 8000b0c:	e051      	b.n	8000bb2 <ucg_com_arduino_generic_SW_SPI+0x1d6>
 8000b0e:	687b      	ldr	r3, [r7, #4]
 8000b10:	781b      	ldrb	r3, [r3, #0]
 8000b12:	4619      	mov	r1, r3
 8000b14:	68f8      	ldr	r0, [r7, #12]
 8000b16:	f7ff ff27 	bl	8000968 <ucg_com_arduino_send_generic_SW_SPI>
 8000b1a:	687b      	ldr	r3, [r7, #4]
 8000b1c:	3301      	adds	r3, #1
 8000b1e:	781b      	ldrb	r3, [r3, #0]
 8000b20:	4619      	mov	r1, r3
 8000b22:	68f8      	ldr	r0, [r7, #12]
 8000b24:	f7ff ff20 	bl	8000968 <ucg_com_arduino_send_generic_SW_SPI>
 8000b28:	687b      	ldr	r3, [r7, #4]
 8000b2a:	3302      	adds	r3, #2
 8000b2c:	781b      	ldrb	r3, [r3, #0]
 8000b2e:	4619      	mov	r1, r3
 8000b30:	68f8      	ldr	r0, [r7, #12]
 8000b32:	f7ff ff19 	bl	8000968 <ucg_com_arduino_send_generic_SW_SPI>
 8000b36:	893b      	ldrh	r3, [r7, #8]
 8000b38:	3b01      	subs	r3, #1
 8000b3a:	813b      	strh	r3, [r7, #8]
 8000b3c:	893b      	ldrh	r3, [r7, #8]
 8000b3e:	2b00      	cmp	r3, #0
 8000b40:	d1e5      	bne.n	8000b0e <ucg_com_arduino_generic_SW_SPI+0x132>
 8000b42:	e036      	b.n	8000bb2 <ucg_com_arduino_generic_SW_SPI+0x1d6>
 8000b44:	687b      	ldr	r3, [r7, #4]
 8000b46:	1c5a      	adds	r2, r3, #1
 8000b48:	607a      	str	r2, [r7, #4]
 8000b4a:	781b      	ldrb	r3, [r3, #0]
 8000b4c:	4619      	mov	r1, r3
 8000b4e:	68f8      	ldr	r0, [r7, #12]
 8000b50:	f7ff ff0a 	bl	8000968 <ucg_com_arduino_send_generic_SW_SPI>
 8000b54:	893b      	ldrh	r3, [r7, #8]
 8000b56:	3b01      	subs	r3, #1
 8000b58:	813b      	strh	r3, [r7, #8]
 8000b5a:	893b      	ldrh	r3, [r7, #8]
 8000b5c:	2b00      	cmp	r3, #0
 8000b5e:	d1f1      	bne.n	8000b44 <ucg_com_arduino_generic_SW_SPI+0x168>
 8000b60:	e027      	b.n	8000bb2 <ucg_com_arduino_generic_SW_SPI+0x1d6>
 8000b62:	687b      	ldr	r3, [r7, #4]
 8000b64:	781b      	ldrb	r3, [r3, #0]
 8000b66:	2b00      	cmp	r3, #0
 8000b68:	d010      	beq.n	8000b8c <ucg_com_arduino_generic_SW_SPI+0x1b0>
 8000b6a:	687b      	ldr	r3, [r7, #4]
 8000b6c:	781b      	ldrb	r3, [r3, #0]
 8000b6e:	2b01      	cmp	r3, #1
 8000b70:	d106      	bne.n	8000b80 <ucg_com_arduino_generic_SW_SPI+0x1a4>
 8000b72:	2200      	movs	r2, #0
 8000b74:	f44f 7100 	mov.w	r1, #512	; 0x200
 8000b78:	4810      	ldr	r0, [pc, #64]	; (8000bbc <ucg_com_arduino_generic_SW_SPI+0x1e0>)
 8000b7a:	f001 fd72 	bl	8002662 <GPIO_WriteBit>
 8000b7e:	e005      	b.n	8000b8c <ucg_com_arduino_generic_SW_SPI+0x1b0>
 8000b80:	2201      	movs	r2, #1
 8000b82:	f44f 7100 	mov.w	r1, #512	; 0x200
 8000b86:	480d      	ldr	r0, [pc, #52]	; (8000bbc <ucg_com_arduino_generic_SW_SPI+0x1e0>)
 8000b88:	f001 fd6b 	bl	8002662 <GPIO_WriteBit>
 8000b8c:	687b      	ldr	r3, [r7, #4]
 8000b8e:	3301      	adds	r3, #1
 8000b90:	607b      	str	r3, [r7, #4]
 8000b92:	687b      	ldr	r3, [r7, #4]
 8000b94:	781b      	ldrb	r3, [r3, #0]
 8000b96:	4619      	mov	r1, r3
 8000b98:	68f8      	ldr	r0, [r7, #12]
 8000b9a:	f7ff fee5 	bl	8000968 <ucg_com_arduino_send_generic_SW_SPI>
 8000b9e:	687b      	ldr	r3, [r7, #4]
 8000ba0:	3301      	adds	r3, #1
 8000ba2:	607b      	str	r3, [r7, #4]
 8000ba4:	893b      	ldrh	r3, [r7, #8]
 8000ba6:	3b01      	subs	r3, #1
 8000ba8:	813b      	strh	r3, [r7, #8]
 8000baa:	893b      	ldrh	r3, [r7, #8]
 8000bac:	2b00      	cmp	r3, #0
 8000bae:	d1d8      	bne.n	8000b62 <ucg_com_arduino_generic_SW_SPI+0x186>
 8000bb0:	bf00      	nop
 8000bb2:	2301      	movs	r3, #1
 8000bb4:	4618      	mov	r0, r3
 8000bb6:	3710      	adds	r7, #16
 8000bb8:	46bd      	mov	sp, r7
 8000bba:	bd80      	pop	{r7, pc}
 8000bbc:	40020000 	.word	0x40020000
 8000bc0:	40020400 	.word	0x40020400
 8000bc4:	40020800 	.word	0x40020800

08000bc8 <Ucglib4WireSWSPI_begin>:
 8000bc8:	b580      	push	{r7, lr}
 8000bca:	b082      	sub	sp, #8
 8000bcc:	af00      	add	r7, sp, #0
 8000bce:	6078      	str	r0, [r7, #4]
 8000bd0:	460b      	mov	r3, r1
 8000bd2:	70fb      	strb	r3, [r7, #3]
 8000bd4:	4b07      	ldr	r3, [pc, #28]	; (8000bf4 <Ucglib4WireSWSPI_begin+0x2c>)
 8000bd6:	4a08      	ldr	r2, [pc, #32]	; (8000bf8 <Ucglib4WireSWSPI_begin+0x30>)
 8000bd8:	4908      	ldr	r1, [pc, #32]	; (8000bfc <Ucglib4WireSWSPI_begin+0x34>)
 8000bda:	6878      	ldr	r0, [r7, #4]
 8000bdc:	f001 f9fe 	bl	8001fdc <ucg_Init>
 8000be0:	78fb      	ldrb	r3, [r7, #3]
 8000be2:	4619      	mov	r1, r3
 8000be4:	6878      	ldr	r0, [r7, #4]
 8000be6:	f000 ffbe 	bl	8001b66 <ucg_SetFontMode>
 8000bea:	bf00      	nop
 8000bec:	3708      	adds	r7, #8
 8000bee:	46bd      	mov	sp, r7
 8000bf0:	bd80      	pop	{r7, pc}
 8000bf2:	bf00      	nop
 8000bf4:	080009dd 	.word	0x080009dd
 8000bf8:	08001235 	.word	0x08001235
 8000bfc:	0800135d 	.word	0x0800135d

08000c00 <ucg_DrawBox>:
 8000c00:	b580      	push	{r7, lr}
 8000c02:	b084      	sub	sp, #16
 8000c04:	af00      	add	r7, sp, #0
 8000c06:	60f8      	str	r0, [r7, #12]
 8000c08:	4608      	mov	r0, r1
 8000c0a:	4611      	mov	r1, r2
 8000c0c:	461a      	mov	r2, r3
 8000c0e:	4603      	mov	r3, r0
 8000c10:	817b      	strh	r3, [r7, #10]
 8000c12:	460b      	mov	r3, r1
 8000c14:	813b      	strh	r3, [r7, #8]
 8000c16:	4613      	mov	r3, r2
 8000c18:	80fb      	strh	r3, [r7, #6]
 8000c1a:	e014      	b.n	8000c46 <ucg_DrawBox+0x46>
 8000c1c:	f9b7 3006 	ldrsh.w	r3, [r7, #6]
 8000c20:	f9b7 2008 	ldrsh.w	r2, [r7, #8]
 8000c24:	f9b7 100a 	ldrsh.w	r1, [r7, #10]
 8000c28:	68f8      	ldr	r0, [r7, #12]
 8000c2a:	f001 fa49 	bl	80020c0 <ucg_DrawHLine>
 8000c2e:	f9b7 3018 	ldrsh.w	r3, [r7, #24]
 8000c32:	b29b      	uxth	r3, r3
 8000c34:	3b01      	subs	r3, #1
 8000c36:	b29b      	uxth	r3, r3
 8000c38:	833b      	strh	r3, [r7, #24]
 8000c3a:	f9b7 3008 	ldrsh.w	r3, [r7, #8]
 8000c3e:	b29b      	uxth	r3, r3
 8000c40:	3301      	adds	r3, #1
 8000c42:	b29b      	uxth	r3, r3
 8000c44:	813b      	strh	r3, [r7, #8]
 8000c46:	f9b7 3018 	ldrsh.w	r3, [r7, #24]
 8000c4a:	2b00      	cmp	r3, #0
 8000c4c:	dce6      	bgt.n	8000c1c <ucg_DrawBox+0x1c>
 8000c4e:	bf00      	nop
 8000c50:	3710      	adds	r7, #16
 8000c52:	46bd      	mov	sp, r7
 8000c54:	bd80      	pop	{r7, pc}

08000c56 <ucg_ClearScreen>:
 8000c56:	b580      	push	{r7, lr}
 8000c58:	b084      	sub	sp, #16
 8000c5a:	af02      	add	r7, sp, #8
 8000c5c:	6078      	str	r0, [r7, #4]
 8000c5e:	2300      	movs	r3, #0
 8000c60:	9300      	str	r3, [sp, #0]
 8000c62:	2300      	movs	r3, #0
 8000c64:	2200      	movs	r2, #0
 8000c66:	2100      	movs	r1, #0
 8000c68:	6878      	ldr	r0, [r7, #4]
 8000c6a:	f001 fa48 	bl	80020fe <ucg_SetColor>
 8000c6e:	6878      	ldr	r0, [r7, #4]
 8000c70:	f000 fb3b 	bl	80012ea <ucg_SetMaxClipRange>
 8000c74:	687b      	ldr	r3, [r7, #4]
 8000c76:	f9b3 2002 	ldrsh.w	r2, [r3, #2]
 8000c7a:	687b      	ldr	r3, [r7, #4]
 8000c7c:	f9b3 3004 	ldrsh.w	r3, [r3, #4]
 8000c80:	9300      	str	r3, [sp, #0]
 8000c82:	4613      	mov	r3, r2
 8000c84:	2200      	movs	r2, #0
 8000c86:	2100      	movs	r1, #0
 8000c88:	6878      	ldr	r0, [r7, #4]
 8000c8a:	f7ff ffb9 	bl	8000c00 <ucg_DrawBox>
 8000c8e:	23ff      	movs	r3, #255	; 0xff
 8000c90:	9300      	str	r3, [sp, #0]
 8000c92:	23ff      	movs	r3, #255	; 0xff
 8000c94:	22ff      	movs	r2, #255	; 0xff
 8000c96:	2100      	movs	r1, #0
 8000c98:	6878      	ldr	r0, [r7, #4]
 8000c9a:	f001 fa30 	bl	80020fe <ucg_SetColor>
 8000c9e:	bf00      	nop
 8000ca0:	3708      	adds	r7, #8
 8000ca2:	46bd      	mov	sp, r7
 8000ca4:	bd80      	pop	{r7, pc}

08000ca6 <ucg_ccs_init>:
 8000ca6:	b480      	push	{r7}
 8000ca8:	b083      	sub	sp, #12
 8000caa:	af00      	add	r7, sp, #0
 8000cac:	6078      	str	r0, [r7, #4]
 8000cae:	4608      	mov	r0, r1
 8000cb0:	4611      	mov	r1, r2
 8000cb2:	461a      	mov	r2, r3
 8000cb4:	4603      	mov	r3, r0
 8000cb6:	70fb      	strb	r3, [r7, #3]
 8000cb8:	460b      	mov	r3, r1
 8000cba:	70bb      	strb	r3, [r7, #2]
 8000cbc:	4613      	mov	r3, r2
 8000cbe:	803b      	strh	r3, [r7, #0]
 8000cc0:	687b      	ldr	r3, [r7, #4]
 8000cc2:	78fa      	ldrb	r2, [r7, #3]
 8000cc4:	705a      	strb	r2, [r3, #1]
 8000cc6:	78bb      	ldrb	r3, [r7, #2]
 8000cc8:	b29a      	uxth	r2, r3
 8000cca:	78fb      	ldrb	r3, [r7, #3]
 8000ccc:	b29b      	uxth	r3, r3
 8000cce:	1ad3      	subs	r3, r2, r3
 8000cd0:	b29b      	uxth	r3, r3
 8000cd2:	b21a      	sxth	r2, r3
 8000cd4:	687b      	ldr	r3, [r7, #4]
 8000cd6:	809a      	strh	r2, [r3, #4]
 8000cd8:	883b      	ldrh	r3, [r7, #0]
 8000cda:	3b01      	subs	r3, #1
 8000cdc:	b29b      	uxth	r3, r3
 8000cde:	b21a      	sxth	r2, r3
 8000ce0:	687b      	ldr	r3, [r7, #4]
 8000ce2:	811a      	strh	r2, [r3, #8]
 8000ce4:	687b      	ldr	r3, [r7, #4]
 8000ce6:	2201      	movs	r2, #1
 8000ce8:	805a      	strh	r2, [r3, #2]
 8000cea:	687b      	ldr	r3, [r7, #4]
 8000cec:	f9b3 3004 	ldrsh.w	r3, [r3, #4]
 8000cf0:	461a      	mov	r2, r3
 8000cf2:	687b      	ldr	r3, [r7, #4]
 8000cf4:	f9b3 3008 	ldrsh.w	r3, [r3, #8]
 8000cf8:	fb92 f3f3 	sdiv	r3, r2, r3
 8000cfc:	b21a      	sxth	r2, r3
 8000cfe:	687b      	ldr	r3, [r7, #4]
 8000d00:	80da      	strh	r2, [r3, #6]
 8000d02:	687b      	ldr	r3, [r7, #4]
 8000d04:	f9b3 3004 	ldrsh.w	r3, [r3, #4]
 8000d08:	2b00      	cmp	r3, #0
 8000d0a:	da0c      	bge.n	8000d26 <ucg_ccs_init+0x80>
 8000d0c:	687b      	ldr	r3, [r7, #4]
 8000d0e:	f9b3 3004 	ldrsh.w	r3, [r3, #4]
 8000d12:	b29b      	uxth	r3, r3
 8000d14:	425b      	negs	r3, r3
 8000d16:	b29b      	uxth	r3, r3
 8000d18:	b21a      	sxth	r2, r3
 8000d1a:	687b      	ldr	r3, [r7, #4]
 8000d1c:	809a      	strh	r2, [r3, #4]
 8000d1e:	687b      	ldr	r3, [r7, #4]
 8000d20:	f64f 72ff 	movw	r2, #65535	; 0xffff
 8000d24:	805a      	strh	r2, [r3, #2]
 8000d26:	687b      	ldr	r3, [r7, #4]
 8000d28:	f9b3 3004 	ldrsh.w	r3, [r3, #4]
 8000d2c:	687a      	ldr	r2, [r7, #4]
 8000d2e:	f9b2 2008 	ldrsh.w	r2, [r2, #8]
 8000d32:	fb93 f1f2 	sdiv	r1, r3, r2
 8000d36:	fb02 f201 	mul.w	r2, r2, r1
 8000d3a:	1a9b      	subs	r3, r3, r2
 8000d3c:	b21a      	sxth	r2, r3
 8000d3e:	687b      	ldr	r3, [r7, #4]
 8000d40:	815a      	strh	r2, [r3, #10]
 8000d42:	687b      	ldr	r3, [r7, #4]
 8000d44:	f9b3 3008 	ldrsh.w	r3, [r3, #8]
 8000d48:	0fda      	lsrs	r2, r3, #31
 8000d4a:	4413      	add	r3, r2
 8000d4c:	105b      	asrs	r3, r3, #1
 8000d4e:	b21a      	sxth	r2, r3
 8000d50:	687b      	ldr	r3, [r7, #4]
 8000d52:	819a      	strh	r2, [r3, #12]
 8000d54:	687b      	ldr	r3, [r7, #4]
 8000d56:	78fa      	ldrb	r2, [r7, #3]
 8000d58:	701a      	strb	r2, [r3, #0]
 8000d5a:	bf00      	nop
 8000d5c:	370c      	adds	r7, #12
 8000d5e:	46bd      	mov	sp, r7
 8000d60:	f85d 7b04 	ldr.w	r7, [sp], #4
 8000d64:	4770      	bx	lr

08000d66 <ucg_ccs_step>:
 8000d66:	b480      	push	{r7}
 8000d68:	b083      	sub	sp, #12
 8000d6a:	af00      	add	r7, sp, #0
 8000d6c:	6078      	str	r0, [r7, #4]
 8000d6e:	687b      	ldr	r3, [r7, #4]
 8000d70:	781a      	ldrb	r2, [r3, #0]
 8000d72:	687b      	ldr	r3, [r7, #4]
 8000d74:	f9b3 3006 	ldrsh.w	r3, [r3, #6]
 8000d78:	b2db      	uxtb	r3, r3
 8000d7a:	4413      	add	r3, r2
 8000d7c:	b2da      	uxtb	r2, r3
 8000d7e:	687b      	ldr	r3, [r7, #4]
 8000d80:	701a      	strb	r2, [r3, #0]
 8000d82:	687b      	ldr	r3, [r7, #4]
 8000d84:	f9b3 300c 	ldrsh.w	r3, [r3, #12]
 8000d88:	b29a      	uxth	r2, r3
 8000d8a:	687b      	ldr	r3, [r7, #4]
 8000d8c:	f9b3 300a 	ldrsh.w	r3, [r3, #10]
 8000d90:	b29b      	uxth	r3, r3
 8000d92:	4413      	add	r3, r2
 8000d94:	b29b      	uxth	r3, r3
 8000d96:	b21a      	sxth	r2, r3
 8000d98:	687b      	ldr	r3, [r7, #4]
 8000d9a:	819a      	strh	r2, [r3, #12]
 8000d9c:	687b      	ldr	r3, [r7, #4]
 8000d9e:	f9b3 200c 	ldrsh.w	r2, [r3, #12]
 8000da2:	687b      	ldr	r3, [r7, #4]
 8000da4:	f9b3 3008 	ldrsh.w	r3, [r3, #8]
 8000da8:	429a      	cmp	r2, r3
 8000daa:	db16      	blt.n	8000dda <ucg_ccs_step+0x74>
 8000dac:	687b      	ldr	r3, [r7, #4]
 8000dae:	781a      	ldrb	r2, [r3, #0]
 8000db0:	687b      	ldr	r3, [r7, #4]
 8000db2:	f9b3 3002 	ldrsh.w	r3, [r3, #2]
 8000db6:	b2db      	uxtb	r3, r3
 8000db8:	4413      	add	r3, r2
 8000dba:	b2da      	uxtb	r2, r3
 8000dbc:	687b      	ldr	r3, [r7, #4]
 8000dbe:	701a      	strb	r2, [r3, #0]
 8000dc0:	687b      	ldr	r3, [r7, #4]
 8000dc2:	f9b3 300c 	ldrsh.w	r3, [r3, #12]
 8000dc6:	b29a      	uxth	r2, r3
 8000dc8:	687b      	ldr	r3, [r7, #4]
 8000dca:	f9b3 3008 	ldrsh.w	r3, [r3, #8]
 8000dce:	b29b      	uxth	r3, r3
 8000dd0:	1ad3      	subs	r3, r2, r3
 8000dd2:	b29b      	uxth	r3, r3
 8000dd4:	b21a      	sxth	r2, r3
 8000dd6:	687b      	ldr	r3, [r7, #4]
 8000dd8:	819a      	strh	r2, [r3, #12]
 8000dda:	bf00      	nop
 8000ddc:	370c      	adds	r7, #12
 8000dde:	46bd      	mov	sp, r7
 8000de0:	f85d 7b04 	ldr.w	r7, [sp], #4
 8000de4:	4770      	bx	lr

08000de6 <ucg_ccs_seek>:
 8000de6:	b480      	push	{r7}
 8000de8:	b085      	sub	sp, #20
 8000dea:	af00      	add	r7, sp, #0
 8000dec:	6078      	str	r0, [r7, #4]
 8000dee:	460b      	mov	r3, r1
 8000df0:	807b      	strh	r3, [r7, #2]
 8000df2:	687b      	ldr	r3, [r7, #4]
 8000df4:	f9b3 3006 	ldrsh.w	r3, [r3, #6]
 8000df8:	b2da      	uxtb	r2, r3
 8000dfa:	687b      	ldr	r3, [r7, #4]
 8000dfc:	701a      	strb	r2, [r3, #0]
 8000dfe:	687b      	ldr	r3, [r7, #4]
 8000e00:	781a      	ldrb	r2, [r3, #0]
 8000e02:	887b      	ldrh	r3, [r7, #2]
 8000e04:	b2db      	uxtb	r3, r3
 8000e06:	fb12 f303 	smulbb	r3, r2, r3
 8000e0a:	b2da      	uxtb	r2, r3
 8000e0c:	687b      	ldr	r3, [r7, #4]
 8000e0e:	701a      	strb	r2, [r3, #0]
 8000e10:	687b      	ldr	r3, [r7, #4]
 8000e12:	f9b3 300a 	ldrsh.w	r3, [r3, #10]
 8000e16:	b29a      	uxth	r2, r3
 8000e18:	887b      	ldrh	r3, [r7, #2]
 8000e1a:	fb12 f303 	smulbb	r3, r2, r3
 8000e1e:	b29a      	uxth	r2, r3
 8000e20:	687b      	ldr	r3, [r7, #4]
 8000e22:	f9b3 3008 	ldrsh.w	r3, [r3, #8]
 8000e26:	0fd9      	lsrs	r1, r3, #31
 8000e28:	440b      	add	r3, r1
 8000e2a:	105b      	asrs	r3, r3, #1
 8000e2c:	b21b      	sxth	r3, r3
 8000e2e:	b29b      	uxth	r3, r3
 8000e30:	4413      	add	r3, r2
 8000e32:	b29b      	uxth	r3, r3
 8000e34:	81fb      	strh	r3, [r7, #14]
 8000e36:	687b      	ldr	r3, [r7, #4]
 8000e38:	f9b3 3002 	ldrsh.w	r3, [r3, #2]
 8000e3c:	2b00      	cmp	r3, #0
 8000e3e:	db0e      	blt.n	8000e5e <ucg_ccs_seek+0x78>
 8000e40:	687b      	ldr	r3, [r7, #4]
 8000e42:	781a      	ldrb	r2, [r3, #0]
 8000e44:	f9b7 300e 	ldrsh.w	r3, [r7, #14]
 8000e48:	6879      	ldr	r1, [r7, #4]
 8000e4a:	f9b1 1008 	ldrsh.w	r1, [r1, #8]
 8000e4e:	fb93 f3f1 	sdiv	r3, r3, r1
 8000e52:	b2db      	uxtb	r3, r3
 8000e54:	4413      	add	r3, r2
 8000e56:	b2da      	uxtb	r2, r3
 8000e58:	687b      	ldr	r3, [r7, #4]
 8000e5a:	701a      	strb	r2, [r3, #0]
 8000e5c:	e00d      	b.n	8000e7a <ucg_ccs_seek+0x94>
 8000e5e:	687b      	ldr	r3, [r7, #4]
 8000e60:	781a      	ldrb	r2, [r3, #0]
 8000e62:	f9b7 300e 	ldrsh.w	r3, [r7, #14]
 8000e66:	6879      	ldr	r1, [r7, #4]
 8000e68:	f9b1 1008 	ldrsh.w	r1, [r1, #8]
 8000e6c:	fb93 f3f1 	sdiv	r3, r3, r1
 8000e70:	b2db      	uxtb	r3, r3
 8000e72:	1ad3      	subs	r3, r2, r3
 8000e74:	b2da      	uxtb	r2, r3
 8000e76:	687b      	ldr	r3, [r7, #4]
 8000e78:	701a      	strb	r2, [r3, #0]
 8000e7a:	f9b7 300e 	ldrsh.w	r3, [r7, #14]
 8000e7e:	687a      	ldr	r2, [r7, #4]
 8000e80:	f9b2 2008 	ldrsh.w	r2, [r2, #8]
 8000e84:	fb93 f1f2 	sdiv	r1, r3, r2
 8000e88:	fb02 f201 	mul.w	r2, r2, r1
 8000e8c:	1a9b      	subs	r3, r3, r2
 8000e8e:	b21a      	sxth	r2, r3
 8000e90:	687b      	ldr	r3, [r7, #4]
 8000e92:	819a      	strh	r2, [r3, #12]
 8000e94:	687b      	ldr	r3, [r7, #4]
 8000e96:	781a      	ldrb	r2, [r3, #0]
 8000e98:	687b      	ldr	r3, [r7, #4]
 8000e9a:	785b      	ldrb	r3, [r3, #1]
 8000e9c:	4413      	add	r3, r2
 8000e9e:	b2da      	uxtb	r2, r3
 8000ea0:	687b      	ldr	r3, [r7, #4]
 8000ea2:	701a      	strb	r2, [r3, #0]
 8000ea4:	bf00      	nop
 8000ea6:	3714      	adds	r7, #20
 8000ea8:	46bd      	mov	sp, r7
 8000eaa:	f85d 7b04 	ldr.w	r7, [sp], #4
 8000eae:	4770      	bx	lr

08000eb0 <ucg_dev_default_cb>:
 8000eb0:	b580      	push	{r7, lr}
 8000eb2:	b084      	sub	sp, #16
 8000eb4:	af00      	add	r7, sp, #0
 8000eb6:	60f8      	str	r0, [r7, #12]
 8000eb8:	460b      	mov	r3, r1
 8000eba:	607a      	str	r2, [r7, #4]
 8000ebc:	817b      	strh	r3, [r7, #10]
 8000ebe:	f9b7 300a 	ldrsh.w	r3, [r7, #10]
 8000ec2:	2b0c      	cmp	r3, #12
 8000ec4:	d00a      	beq.n	8000edc <ucg_dev_default_cb+0x2c>
 8000ec6:	2b17      	cmp	r3, #23
 8000ec8:	d10f      	bne.n	8000eea <ucg_dev_default_cb+0x3a>
 8000eca:	68fb      	ldr	r3, [r7, #12]
 8000ecc:	68db      	ldr	r3, [r3, #12]
 8000ece:	f9b7 100a 	ldrsh.w	r1, [r7, #10]
 8000ed2:	687a      	ldr	r2, [r7, #4]
 8000ed4:	68f8      	ldr	r0, [r7, #12]
 8000ed6:	4798      	blx	r3
 8000ed8:	4603      	mov	r3, r0
 8000eda:	e007      	b.n	8000eec <ucg_dev_default_cb+0x3c>
 8000edc:	68fb      	ldr	r3, [r7, #12]
 8000ede:	687a      	ldr	r2, [r7, #4]
 8000ee0:	3370      	adds	r3, #112	; 0x70
 8000ee2:	6810      	ldr	r0, [r2, #0]
 8000ee4:	6851      	ldr	r1, [r2, #4]
 8000ee6:	c303      	stmia	r3!, {r0, r1}
 8000ee8:	bf00      	nop
 8000eea:	2301      	movs	r3, #1
 8000eec:	4618      	mov	r0, r3
 8000eee:	3710      	adds	r7, #16
 8000ef0:	46bd      	mov	sp, r7
 8000ef2:	bd80      	pop	{r7, pc}

08000ef4 <ucg_ext_none>:
 8000ef4:	b480      	push	{r7}
 8000ef6:	b085      	sub	sp, #20
 8000ef8:	af00      	add	r7, sp, #0
 8000efa:	60f8      	str	r0, [r7, #12]
 8000efc:	460b      	mov	r3, r1
 8000efe:	607a      	str	r2, [r7, #4]
 8000f00:	817b      	strh	r3, [r7, #10]
 8000f02:	2301      	movs	r3, #1
 8000f04:	4618      	mov	r0, r3
 8000f06:	3714      	adds	r7, #20
 8000f08:	46bd      	mov	sp, r7
 8000f0a:	f85d 7b04 	ldr.w	r7, [sp], #4
 8000f0e:	4770      	bx	lr

08000f10 <ucg_handle_st7735_l90fx>:
 8000f10:	b590      	push	{r4, r7, lr}
 8000f12:	b085      	sub	sp, #20
 8000f14:	af00      	add	r7, sp, #0
 8000f16:	6078      	str	r0, [r7, #4]
 8000f18:	6878      	ldr	r0, [r7, #4]
 8000f1a:	f001 fd21 	bl	8002960 <ucg_clip_l90fx>
 8000f1e:	4603      	mov	r3, r0
 8000f20:	2b00      	cmp	r3, #0
 8000f22:	d053      	beq.n	8000fcc <ucg_handle_st7735_l90fx+0xbc>
 8000f24:	687b      	ldr	r3, [r7, #4]
 8000f26:	f9b3 302e 	ldrsh.w	r3, [r3, #46]	; 0x2e
 8000f2a:	2b01      	cmp	r3, #1
 8000f2c:	d008      	beq.n	8000f40 <ucg_handle_st7735_l90fx+0x30>
 8000f2e:	2b02      	cmp	r3, #2
 8000f30:	d00b      	beq.n	8000f4a <ucg_handle_st7735_l90fx+0x3a>
 8000f32:	2b00      	cmp	r3, #0
 8000f34:	d11b      	bne.n	8000f6e <ucg_handle_st7735_l90fx+0x5e>
 8000f36:	4928      	ldr	r1, [pc, #160]	; (8000fd8 <ucg_handle_st7735_l90fx+0xc8>)
 8000f38:	6878      	ldr	r0, [r7, #4]
 8000f3a:	f002 f83f 	bl	8002fbc <ucg_com_SendCmdSeq>
 8000f3e:	e028      	b.n	8000f92 <ucg_handle_st7735_l90fx+0x82>
 8000f40:	4926      	ldr	r1, [pc, #152]	; (8000fdc <ucg_handle_st7735_l90fx+0xcc>)
 8000f42:	6878      	ldr	r0, [r7, #4]
 8000f44:	f002 f83a 	bl	8002fbc <ucg_com_SendCmdSeq>
 8000f48:	e023      	b.n	8000f92 <ucg_handle_st7735_l90fx+0x82>
 8000f4a:	687b      	ldr	r3, [r7, #4]
 8000f4c:	8c9b      	ldrh	r3, [r3, #36]	; 0x24
 8000f4e:	81fb      	strh	r3, [r7, #14]
 8000f50:	89fb      	ldrh	r3, [r7, #14]
 8000f52:	f1c3 037f 	rsb	r3, r3, #127	; 0x7f
 8000f56:	b29b      	uxth	r3, r3
 8000f58:	b21a      	sxth	r2, r3
 8000f5a:	687b      	ldr	r3, [r7, #4]
 8000f5c:	849a      	strh	r2, [r3, #36]	; 0x24
 8000f5e:	4920      	ldr	r1, [pc, #128]	; (8000fe0 <ucg_handle_st7735_l90fx+0xd0>)
 8000f60:	6878      	ldr	r0, [r7, #4]
 8000f62:	f002 f82b 	bl	8002fbc <ucg_com_SendCmdSeq>
 8000f66:	687b      	ldr	r3, [r7, #4]
 8000f68:	89fa      	ldrh	r2, [r7, #14]
 8000f6a:	849a      	strh	r2, [r3, #36]	; 0x24
 8000f6c:	e011      	b.n	8000f92 <ucg_handle_st7735_l90fx+0x82>
 8000f6e:	687b      	ldr	r3, [r7, #4]
 8000f70:	8cdb      	ldrh	r3, [r3, #38]	; 0x26
 8000f72:	81fb      	strh	r3, [r7, #14]
 8000f74:	89fb      	ldrh	r3, [r7, #14]
 8000f76:	f1c3 037f 	rsb	r3, r3, #127	; 0x7f
 8000f7a:	b29b      	uxth	r3, r3
 8000f7c:	b21a      	sxth	r2, r3
 8000f7e:	687b      	ldr	r3, [r7, #4]
 8000f80:	84da      	strh	r2, [r3, #38]	; 0x26
 8000f82:	4918      	ldr	r1, [pc, #96]	; (8000fe4 <ucg_handle_st7735_l90fx+0xd4>)
 8000f84:	6878      	ldr	r0, [r7, #4]
 8000f86:	f002 f819 	bl	8002fbc <ucg_com_SendCmdSeq>
 8000f8a:	687b      	ldr	r3, [r7, #4]
 8000f8c:	89fa      	ldrh	r2, [r7, #14]
 8000f8e:	84da      	strh	r2, [r3, #38]	; 0x26
 8000f90:	bf00      	nop
 8000f92:	687b      	ldr	r3, [r7, #4]
 8000f94:	f893 3028 	ldrb.w	r3, [r3, #40]	; 0x28
 8000f98:	723b      	strb	r3, [r7, #8]
 8000f9a:	687b      	ldr	r3, [r7, #4]
 8000f9c:	f893 3029 	ldrb.w	r3, [r3, #41]	; 0x29
 8000fa0:	727b      	strb	r3, [r7, #9]
 8000fa2:	687b      	ldr	r3, [r7, #4]
 8000fa4:	f893 302a 	ldrb.w	r3, [r3, #42]	; 0x2a
 8000fa8:	72bb      	strb	r3, [r7, #10]
 8000faa:	687b      	ldr	r3, [r7, #4]
 8000fac:	69dc      	ldr	r4, [r3, #28]
 8000fae:	687b      	ldr	r3, [r7, #4]
 8000fb0:	f9b3 302c 	ldrsh.w	r3, [r3, #44]	; 0x2c
 8000fb4:	b29a      	uxth	r2, r3
 8000fb6:	f107 0308 	add.w	r3, r7, #8
 8000fba:	2113      	movs	r1, #19
 8000fbc:	6878      	ldr	r0, [r7, #4]
 8000fbe:	47a0      	blx	r4
 8000fc0:	2101      	movs	r1, #1
 8000fc2:	6878      	ldr	r0, [r7, #4]
 8000fc4:	f001 ff46 	bl	8002e54 <ucg_com_SetCSLineStatus>
 8000fc8:	2301      	movs	r3, #1
 8000fca:	e000      	b.n	8000fce <ucg_handle_st7735_l90fx+0xbe>
 8000fcc:	2300      	movs	r3, #0
 8000fce:	4618      	mov	r0, r3
 8000fd0:	3714      	adds	r7, #20
 8000fd2:	46bd      	mov	sp, r7
 8000fd4:	bd90      	pop	{r4, r7, pc}
 8000fd6:	bf00      	nop
 8000fd8:	080032d0 	.word	0x080032d0
 8000fdc:	080032f0 	.word	0x080032f0
 8000fe0:	08003314 	.word	0x08003314
 8000fe4:	08003338 	.word	0x08003338

08000fe8 <ucg_handle_st7735_l90se>:
 8000fe8:	b590      	push	{r4, r7, lr}
 8000fea:	b087      	sub	sp, #28
 8000fec:	af00      	add	r7, sp, #0
 8000fee:	6078      	str	r0, [r7, #4]
 8000ff0:	2300      	movs	r3, #0
 8000ff2:	75fb      	strb	r3, [r7, #23]
 8000ff4:	e01a      	b.n	800102c <ucg_handle_st7735_l90se+0x44>
 8000ff6:	687b      	ldr	r3, [r7, #4]
 8000ff8:	f103 0146 	add.w	r1, r3, #70	; 0x46
 8000ffc:	7dfa      	ldrb	r2, [r7, #23]
 8000ffe:	4613      	mov	r3, r2
 8001000:	00db      	lsls	r3, r3, #3
 8001002:	1a9b      	subs	r3, r3, r2
 8001004:	005b      	lsls	r3, r3, #1
 8001006:	18c8      	adds	r0, r1, r3
 8001008:	7dfb      	ldrb	r3, [r7, #23]
 800100a:	687a      	ldr	r2, [r7, #4]
 800100c:	4413      	add	r3, r2
 800100e:	f893 103a 	ldrb.w	r1, [r3, #58]	; 0x3a
 8001012:	7dfb      	ldrb	r3, [r7, #23]
 8001014:	687a      	ldr	r2, [r7, #4]
 8001016:	4413      	add	r3, r2
 8001018:	f893 203d 	ldrb.w	r2, [r3, #61]	; 0x3d
 800101c:	687b      	ldr	r3, [r7, #4]
 800101e:	f9b3 302c 	ldrsh.w	r3, [r3, #44]	; 0x2c
 8001022:	f7ff fe40 	bl	8000ca6 <ucg_ccs_init>
 8001026:	7dfb      	ldrb	r3, [r7, #23]
 8001028:	3301      	adds	r3, #1
 800102a:	75fb      	strb	r3, [r7, #23]
 800102c:	7dfb      	ldrb	r3, [r7, #23]
 800102e:	2b02      	cmp	r3, #2
 8001030:	d9e1      	bls.n	8000ff6 <ucg_handle_st7735_l90se+0xe>
 8001032:	6878      	ldr	r0, [r7, #4]
 8001034:	f001 fe14 	bl	8002c60 <ucg_clip_l90se>
 8001038:	4603      	mov	r3, r0
 800103a:	2b00      	cmp	r3, #0
 800103c:	d071      	beq.n	8001122 <ucg_handle_st7735_l90se+0x13a>
 800103e:	687b      	ldr	r3, [r7, #4]
 8001040:	f9b3 302e 	ldrsh.w	r3, [r3, #46]	; 0x2e
 8001044:	2b01      	cmp	r3, #1
 8001046:	d008      	beq.n	800105a <ucg_handle_st7735_l90se+0x72>
 8001048:	2b02      	cmp	r3, #2
 800104a:	d00b      	beq.n	8001064 <ucg_handle_st7735_l90se+0x7c>
 800104c:	2b00      	cmp	r3, #0
 800104e:	d11b      	bne.n	8001088 <ucg_handle_st7735_l90se+0xa0>
 8001050:	4936      	ldr	r1, [pc, #216]	; (800112c <ucg_handle_st7735_l90se+0x144>)
 8001052:	6878      	ldr	r0, [r7, #4]
 8001054:	f001 ffb2 	bl	8002fbc <ucg_com_SendCmdSeq>
 8001058:	e028      	b.n	80010ac <ucg_handle_st7735_l90se+0xc4>
 800105a:	4935      	ldr	r1, [pc, #212]	; (8001130 <ucg_handle_st7735_l90se+0x148>)
 800105c:	6878      	ldr	r0, [r7, #4]
 800105e:	f001 ffad 	bl	8002fbc <ucg_com_SendCmdSeq>
 8001062:	e023      	b.n	80010ac <ucg_handle_st7735_l90se+0xc4>
 8001064:	687b      	ldr	r3, [r7, #4]
 8001066:	8c9b      	ldrh	r3, [r3, #36]	; 0x24
 8001068:	827b      	strh	r3, [r7, #18]
 800106a:	8a7b      	ldrh	r3, [r7, #18]
 800106c:	f1c3 037f 	rsb	r3, r3, #127	; 0x7f
 8001070:	b29b      	uxth	r3, r3
 8001072:	b21a      	sxth	r2, r3
 8001074:	687b      	ldr	r3, [r7, #4]
 8001076:	849a      	strh	r2, [r3, #36]	; 0x24
 8001078:	492e      	ldr	r1, [pc, #184]	; (8001134 <ucg_handle_st7735_l90se+0x14c>)
 800107a:	6878      	ldr	r0, [r7, #4]
 800107c:	f001 ff9e 	bl	8002fbc <ucg_com_SendCmdSeq>
 8001080:	687b      	ldr	r3, [r7, #4]
 8001082:	8a7a      	ldrh	r2, [r7, #18]
 8001084:	849a      	strh	r2, [r3, #36]	; 0x24
 8001086:	e011      	b.n	80010ac <ucg_handle_st7735_l90se+0xc4>
 8001088:	687b      	ldr	r3, [r7, #4]
 800108a:	8cdb      	ldrh	r3, [r3, #38]	; 0x26
 800108c:	827b      	strh	r3, [r7, #18]
 800108e:	8a7b      	ldrh	r3, [r7, #18]
 8001090:	f1c3 037f 	rsb	r3, r3, #127	; 0x7f
 8001094:	b29b      	uxth	r3, r3
 8001096:	b21a      	sxth	r2, r3
 8001098:	687b      	ldr	r3, [r7, #4]
 800109a:	84da      	strh	r2, [r3, #38]	; 0x26
 800109c:	4926      	ldr	r1, [pc, #152]	; (8001138 <ucg_handle_st7735_l90se+0x150>)
 800109e:	6878      	ldr	r0, [r7, #4]
 80010a0:	f001 ff8c 	bl	8002fbc <ucg_com_SendCmdSeq>
 80010a4:	687b      	ldr	r3, [r7, #4]
 80010a6:	8a7a      	ldrh	r2, [r7, #18]
 80010a8:	84da      	strh	r2, [r3, #38]	; 0x26
 80010aa:	bf00      	nop
 80010ac:	2300      	movs	r3, #0
 80010ae:	82bb      	strh	r3, [r7, #20]
 80010b0:	e02a      	b.n	8001108 <ucg_handle_st7735_l90se+0x120>
 80010b2:	687b      	ldr	r3, [r7, #4]
 80010b4:	f893 3046 	ldrb.w	r3, [r3, #70]	; 0x46
 80010b8:	733b      	strb	r3, [r7, #12]
 80010ba:	687b      	ldr	r3, [r7, #4]
 80010bc:	f893 3054 	ldrb.w	r3, [r3, #84]	; 0x54
 80010c0:	737b      	strb	r3, [r7, #13]
 80010c2:	687b      	ldr	r3, [r7, #4]
 80010c4:	f893 3062 	ldrb.w	r3, [r3, #98]	; 0x62
 80010c8:	73bb      	strb	r3, [r7, #14]
 80010ca:	687b      	ldr	r3, [r7, #4]
 80010cc:	69dc      	ldr	r4, [r3, #28]
 80010ce:	f107 030c 	add.w	r3, r7, #12
 80010d2:	2201      	movs	r2, #1
 80010d4:	2113      	movs	r1, #19
 80010d6:	6878      	ldr	r0, [r7, #4]
 80010d8:	47a0      	blx	r4
 80010da:	687b      	ldr	r3, [r7, #4]
 80010dc:	3346      	adds	r3, #70	; 0x46
 80010de:	4618      	mov	r0, r3
 80010e0:	f7ff fe41 	bl	8000d66 <ucg_ccs_step>
 80010e4:	687b      	ldr	r3, [r7, #4]
 80010e6:	3346      	adds	r3, #70	; 0x46
 80010e8:	330e      	adds	r3, #14
 80010ea:	4618      	mov	r0, r3
 80010ec:	f7ff fe3b 	bl	8000d66 <ucg_ccs_step>
 80010f0:	687b      	ldr	r3, [r7, #4]
 80010f2:	3346      	adds	r3, #70	; 0x46
 80010f4:	331c      	adds	r3, #28
 80010f6:	4618      	mov	r0, r3
 80010f8:	f7ff fe35 	bl	8000d66 <ucg_ccs_step>
 80010fc:	f9b7 3014 	ldrsh.w	r3, [r7, #20]
 8001100:	b29b      	uxth	r3, r3
 8001102:	3301      	adds	r3, #1
 8001104:	b29b      	uxth	r3, r3
 8001106:	82bb      	strh	r3, [r7, #20]
 8001108:	687b      	ldr	r3, [r7, #4]
 800110a:	f9b3 302c 	ldrsh.w	r3, [r3, #44]	; 0x2c
 800110e:	f9b7 2014 	ldrsh.w	r2, [r7, #20]
 8001112:	429a      	cmp	r2, r3
 8001114:	dbcd      	blt.n	80010b2 <ucg_handle_st7735_l90se+0xca>
 8001116:	2101      	movs	r1, #1
 8001118:	6878      	ldr	r0, [r7, #4]
 800111a:	f001 fe9b 	bl	8002e54 <ucg_com_SetCSLineStatus>
 800111e:	2301      	movs	r3, #1
 8001120:	e000      	b.n	8001124 <ucg_handle_st7735_l90se+0x13c>
 8001122:	2300      	movs	r3, #0
 8001124:	4618      	mov	r0, r3
 8001126:	371c      	adds	r7, #28
 8001128:	46bd      	mov	sp, r7
 800112a:	bd90      	pop	{r4, r7, pc}
 800112c:	080032d0 	.word	0x080032d0
 8001130:	080032f0 	.word	0x080032f0
 8001134:	08003314 	.word	0x08003314
 8001138:	08003338 	.word	0x08003338

0800113c <ucg_dev_ic_st7735_18>:
 800113c:	b590      	push	{r4, r7, lr}
 800113e:	b087      	sub	sp, #28
 8001140:	af00      	add	r7, sp, #0
 8001142:	60f8      	str	r0, [r7, #12]
 8001144:	460b      	mov	r3, r1
 8001146:	607a      	str	r2, [r7, #4]
 8001148:	817b      	strh	r3, [r7, #10]
 800114a:	f9b7 300a 	ldrsh.w	r3, [r7, #10]
 800114e:	3b0a      	subs	r3, #10
 8001150:	2b0b      	cmp	r3, #11
 8001152:	d85f      	bhi.n	8001214 <ucg_dev_ic_st7735_18+0xd8>
 8001154:	a201      	add	r2, pc, #4	; (adr r2, 800115c <ucg_dev_ic_st7735_18+0x20>)
 8001156:	f852 f023 	ldr.w	pc, [r2, r3, lsl #2]
 800115a:	bf00      	nop
 800115c:	0800118d 	.word	0x0800118d
 8001160:	080011a7 	.word	0x080011a7
 8001164:	08001215 	.word	0x08001215
 8001168:	08001215 	.word	0x08001215
 800116c:	08001215 	.word	0x08001215
 8001170:	080011b3 	.word	0x080011b3
 8001174:	08001215 	.word	0x08001215
 8001178:	08001215 	.word	0x08001215
 800117c:	08001215 	.word	0x08001215
 8001180:	08001215 	.word	0x08001215
 8001184:	080011c3 	.word	0x080011c3
 8001188:	0800120b 	.word	0x0800120b
 800118c:	68fb      	ldr	r3, [r7, #12]
 800118e:	2202      	movs	r2, #2
 8001190:	841a      	strh	r2, [r3, #32]
 8001192:	68fb      	ldr	r3, [r7, #12]
 8001194:	2201      	movs	r2, #1
 8001196:	845a      	strh	r2, [r3, #34]	; 0x22
 8001198:	2242      	movs	r2, #66	; 0x42
 800119a:	2164      	movs	r1, #100	; 0x64
 800119c:	68f8      	ldr	r0, [r7, #12]
 800119e:	f001 fda8 	bl	8002cf2 <ucg_com_PowerUp>
 80011a2:	4603      	mov	r3, r0
 80011a4:	e03e      	b.n	8001224 <ucg_dev_ic_st7735_18+0xe8>
 80011a6:	4921      	ldr	r1, [pc, #132]	; (800122c <ucg_dev_ic_st7735_18+0xf0>)
 80011a8:	68f8      	ldr	r0, [r7, #12]
 80011aa:	f001 ff07 	bl	8002fbc <ucg_com_SendCmdSeq>
 80011ae:	2301      	movs	r3, #1
 80011b0:	e038      	b.n	8001224 <ucg_dev_ic_st7735_18+0xe8>
 80011b2:	687b      	ldr	r3, [r7, #4]
 80011b4:	2280      	movs	r2, #128	; 0x80
 80011b6:	801a      	strh	r2, [r3, #0]
 80011b8:	687b      	ldr	r3, [r7, #4]
 80011ba:	2280      	movs	r2, #128	; 0x80
 80011bc:	805a      	strh	r2, [r3, #2]
 80011be:	2301      	movs	r3, #1
 80011c0:	e030      	b.n	8001224 <ucg_dev_ic_st7735_18+0xe8>
 80011c2:	68f8      	ldr	r0, [r7, #12]
 80011c4:	f001 fbb2 	bl	800292c <ucg_clip_is_pixel_visible>
 80011c8:	4603      	mov	r3, r0
 80011ca:	2b00      	cmp	r3, #0
 80011cc:	d01b      	beq.n	8001206 <ucg_dev_ic_st7735_18+0xca>
 80011ce:	4918      	ldr	r1, [pc, #96]	; (8001230 <ucg_dev_ic_st7735_18+0xf4>)
 80011d0:	68f8      	ldr	r0, [r7, #12]
 80011d2:	f001 fef3 	bl	8002fbc <ucg_com_SendCmdSeq>
 80011d6:	68fb      	ldr	r3, [r7, #12]
 80011d8:	f893 3028 	ldrb.w	r3, [r3, #40]	; 0x28
 80011dc:	753b      	strb	r3, [r7, #20]
 80011de:	68fb      	ldr	r3, [r7, #12]
 80011e0:	f893 3029 	ldrb.w	r3, [r3, #41]	; 0x29
 80011e4:	757b      	strb	r3, [r7, #21]
 80011e6:	68fb      	ldr	r3, [r7, #12]
 80011e8:	f893 302a 	ldrb.w	r3, [r3, #42]	; 0x2a
 80011ec:	75bb      	strb	r3, [r7, #22]
 80011ee:	68fb      	ldr	r3, [r7, #12]
 80011f0:	69dc      	ldr	r4, [r3, #28]
 80011f2:	f107 0314 	add.w	r3, r7, #20
 80011f6:	2201      	movs	r2, #1
 80011f8:	2113      	movs	r1, #19
 80011fa:	68f8      	ldr	r0, [r7, #12]
 80011fc:	47a0      	blx	r4
 80011fe:	2101      	movs	r1, #1
 8001200:	68f8      	ldr	r0, [r7, #12]
 8001202:	f001 fe27 	bl	8002e54 <ucg_com_SetCSLineStatus>
 8001206:	2301      	movs	r3, #1
 8001208:	e00c      	b.n	8001224 <ucg_dev_ic_st7735_18+0xe8>
 800120a:	68f8      	ldr	r0, [r7, #12]
 800120c:	f7ff fe80 	bl	8000f10 <ucg_handle_st7735_l90fx>
 8001210:	2301      	movs	r3, #1
 8001212:	e007      	b.n	8001224 <ucg_dev_ic_st7735_18+0xe8>
 8001214:	f9b7 300a 	ldrsh.w	r3, [r7, #10]
 8001218:	687a      	ldr	r2, [r7, #4]
 800121a:	4619      	mov	r1, r3
 800121c:	68f8      	ldr	r0, [r7, #12]
 800121e:	f7ff fe47 	bl	8000eb0 <ucg_dev_default_cb>
 8001222:	4603      	mov	r3, r0
 8001224:	4618      	mov	r0, r3
 8001226:	371c      	adds	r7, #28
 8001228:	46bd      	mov	sp, r7
 800122a:	bd90      	pop	{r4, r7, pc}
 800122c:	0800335c 	.word	0x0800335c
 8001230:	080032b0 	.word	0x080032b0

08001234 <ucg_ext_st7735_18>:
 8001234:	b580      	push	{r7, lr}
 8001236:	b084      	sub	sp, #16
 8001238:	af00      	add	r7, sp, #0
 800123a:	60f8      	str	r0, [r7, #12]
 800123c:	460b      	mov	r3, r1
 800123e:	607a      	str	r2, [r7, #4]
 8001240:	817b      	strh	r3, [r7, #10]
 8001242:	f9b7 300a 	ldrsh.w	r3, [r7, #10]
 8001246:	2b17      	cmp	r3, #23
 8001248:	d103      	bne.n	8001252 <ucg_ext_st7735_18+0x1e>
 800124a:	68f8      	ldr	r0, [r7, #12]
 800124c:	f7ff fecc 	bl	8000fe8 <ucg_handle_st7735_l90se>
 8001250:	bf00      	nop
 8001252:	2301      	movs	r3, #1
 8001254:	4618      	mov	r0, r3
 8001256:	3710      	adds	r7, #16
 8001258:	46bd      	mov	sp, r7
 800125a:	bd80      	pop	{r7, pc}

0800125c <ucg_PowerDown>:
 800125c:	b580      	push	{r7, lr}
 800125e:	b082      	sub	sp, #8
 8001260:	af00      	add	r7, sp, #0
 8001262:	6078      	str	r0, [r7, #4]
 8001264:	687b      	ldr	r3, [r7, #4]
 8001266:	781b      	ldrb	r3, [r3, #0]
 8001268:	f003 0301 	and.w	r3, r3, #1
 800126c:	b2db      	uxtb	r3, r3
 800126e:	2b00      	cmp	r3, #0
 8001270:	d00a      	beq.n	8001288 <ucg_PowerDown+0x2c>
 8001272:	687b      	ldr	r3, [r7, #4]
 8001274:	689b      	ldr	r3, [r3, #8]
 8001276:	2200      	movs	r2, #0
 8001278:	210b      	movs	r1, #11
 800127a:	6878      	ldr	r0, [r7, #4]
 800127c:	4798      	blx	r3
 800127e:	687a      	ldr	r2, [r7, #4]
 8001280:	7813      	ldrb	r3, [r2, #0]
 8001282:	f36f 0300 	bfc	r3, #0, #1
 8001286:	7013      	strb	r3, [r2, #0]
 8001288:	bf00      	nop
 800128a:	3708      	adds	r7, #8
 800128c:	46bd      	mov	sp, r7
 800128e:	bd80      	pop	{r7, pc}

08001290 <ucg_PowerUp>:
 8001290:	b580      	push	{r7, lr}
 8001292:	b084      	sub	sp, #16
 8001294:	af00      	add	r7, sp, #0
 8001296:	6078      	str	r0, [r7, #4]
 8001298:	6878      	ldr	r0, [r7, #4]
 800129a:	f7ff ffdf 	bl	800125c <ucg_PowerDown>
 800129e:	687b      	ldr	r3, [r7, #4]
 80012a0:	689b      	ldr	r3, [r3, #8]
 80012a2:	2200      	movs	r2, #0
 80012a4:	210a      	movs	r1, #10
 80012a6:	6878      	ldr	r0, [r7, #4]
 80012a8:	4798      	blx	r3
 80012aa:	4603      	mov	r3, r0
 80012ac:	81fb      	strh	r3, [r7, #14]
 80012ae:	f9b7 300e 	ldrsh.w	r3, [r7, #14]
 80012b2:	2b00      	cmp	r3, #0
 80012b4:	d004      	beq.n	80012c0 <ucg_PowerUp+0x30>
 80012b6:	687a      	ldr	r2, [r7, #4]
 80012b8:	7813      	ldrb	r3, [r2, #0]
 80012ba:	f043 0301 	orr.w	r3, r3, #1
 80012be:	7013      	strb	r3, [r2, #0]
 80012c0:	f9b7 300e 	ldrsh.w	r3, [r7, #14]
 80012c4:	4618      	mov	r0, r3
 80012c6:	3710      	adds	r7, #16
 80012c8:	46bd      	mov	sp, r7
 80012ca:	bd80      	pop	{r7, pc}

080012cc <ucg_SetClipBox>:
 80012cc:	b580      	push	{r7, lr}
 80012ce:	b082      	sub	sp, #8
 80012d0:	af00      	add	r7, sp, #0
 80012d2:	6078      	str	r0, [r7, #4]
 80012d4:	6039      	str	r1, [r7, #0]
 80012d6:	687b      	ldr	r3, [r7, #4]
 80012d8:	689b      	ldr	r3, [r3, #8]
 80012da:	683a      	ldr	r2, [r7, #0]
 80012dc:	210c      	movs	r1, #12
 80012de:	6878      	ldr	r0, [r7, #4]
 80012e0:	4798      	blx	r3
 80012e2:	bf00      	nop
 80012e4:	3708      	adds	r7, #8
 80012e6:	46bd      	mov	sp, r7
 80012e8:	bd80      	pop	{r7, pc}

080012ea <ucg_SetMaxClipRange>:
 80012ea:	b580      	push	{r7, lr}
 80012ec:	b084      	sub	sp, #16
 80012ee:	af00      	add	r7, sp, #0
 80012f0:	6078      	str	r0, [r7, #4]
 80012f2:	687a      	ldr	r2, [r7, #4]
 80012f4:	f107 030c 	add.w	r3, r7, #12
 80012f8:	3202      	adds	r2, #2
 80012fa:	6810      	ldr	r0, [r2, #0]
 80012fc:	6018      	str	r0, [r3, #0]
 80012fe:	2300      	movs	r3, #0
 8001300:	813b      	strh	r3, [r7, #8]
 8001302:	2300      	movs	r3, #0
 8001304:	817b      	strh	r3, [r7, #10]
 8001306:	f107 0308 	add.w	r3, r7, #8
 800130a:	4619      	mov	r1, r3
 800130c:	6878      	ldr	r0, [r7, #4]
 800130e:	f7ff ffdd 	bl	80012cc <ucg_SetClipBox>
 8001312:	bf00      	nop
 8001314:	3710      	adds	r7, #16
 8001316:	46bd      	mov	sp, r7
 8001318:	bd80      	pop	{r7, pc}

0800131a <ucg_GetDimension>:
 800131a:	b580      	push	{r7, lr}
 800131c:	b082      	sub	sp, #8
 800131e:	af00      	add	r7, sp, #0
 8001320:	6078      	str	r0, [r7, #4]
 8001322:	687b      	ldr	r3, [r7, #4]
 8001324:	689b      	ldr	r3, [r3, #8]
 8001326:	687a      	ldr	r2, [r7, #4]
 8001328:	3202      	adds	r2, #2
 800132a:	210f      	movs	r1, #15
 800132c:	6878      	ldr	r0, [r7, #4]
 800132e:	4798      	blx	r3
 8001330:	6878      	ldr	r0, [r7, #4]
 8001332:	f7ff ffda 	bl	80012ea <ucg_SetMaxClipRange>
 8001336:	bf00      	nop
 8001338:	3708      	adds	r7, #8
 800133a:	46bd      	mov	sp, r7
 800133c:	bd80      	pop	{r7, pc}

0800133e <ucg_DrawL90FXWithArg>:
 800133e:	b580      	push	{r7, lr}
 8001340:	b082      	sub	sp, #8
 8001342:	af00      	add	r7, sp, #0
 8001344:	6078      	str	r0, [r7, #4]
 8001346:	687b      	ldr	r3, [r7, #4]
 8001348:	689b      	ldr	r3, [r3, #8]
 800134a:	687a      	ldr	r2, [r7, #4]
 800134c:	3224      	adds	r2, #36	; 0x24
 800134e:	2115      	movs	r1, #21
 8001350:	6878      	ldr	r0, [r7, #4]
 8001352:	4798      	blx	r3
 8001354:	bf00      	nop
 8001356:	3708      	adds	r7, #8
 8001358:	46bd      	mov	sp, r7
 800135a:	bd80      	pop	{r7, pc}

0800135c <ucg_dev_st7735_18x128x128>:
 800135c:	b580      	push	{r7, lr}
 800135e:	b084      	sub	sp, #16
 8001360:	af00      	add	r7, sp, #0
 8001362:	60f8      	str	r0, [r7, #12]
 8001364:	460b      	mov	r3, r1
 8001366:	607a      	str	r2, [r7, #4]
 8001368:	817b      	strh	r3, [r7, #10]
 800136a:	f9b7 300a 	ldrsh.w	r3, [r7, #10]
 800136e:	2b0b      	cmp	r3, #11
 8001370:	d015      	beq.n	800139e <ucg_dev_st7735_18x128x128+0x42>
 8001372:	2b0f      	cmp	r3, #15
 8001374:	d01c      	beq.n	80013b0 <ucg_dev_st7735_18x128x128+0x54>
 8001376:	2b0a      	cmp	r3, #10
 8001378:	d122      	bne.n	80013c0 <ucg_dev_st7735_18x128x128+0x64>
 800137a:	f9b7 300a 	ldrsh.w	r3, [r7, #10]
 800137e:	687a      	ldr	r2, [r7, #4]
 8001380:	4619      	mov	r1, r3
 8001382:	68f8      	ldr	r0, [r7, #12]
 8001384:	f7ff feda 	bl	800113c <ucg_dev_ic_st7735_18>
 8001388:	4603      	mov	r3, r0
 800138a:	2b00      	cmp	r3, #0
 800138c:	d101      	bne.n	8001392 <ucg_dev_st7735_18x128x128+0x36>
 800138e:	2300      	movs	r3, #0
 8001390:	e01e      	b.n	80013d0 <ucg_dev_st7735_18x128x128+0x74>
 8001392:	4911      	ldr	r1, [pc, #68]	; (80013d8 <ucg_dev_st7735_18x128x128+0x7c>)
 8001394:	68f8      	ldr	r0, [r7, #12]
 8001396:	f001 fe11 	bl	8002fbc <ucg_com_SendCmdSeq>
 800139a:	2301      	movs	r3, #1
 800139c:	e018      	b.n	80013d0 <ucg_dev_st7735_18x128x128+0x74>
 800139e:	f9b7 300a 	ldrsh.w	r3, [r7, #10]
 80013a2:	687a      	ldr	r2, [r7, #4]
 80013a4:	4619      	mov	r1, r3
 80013a6:	68f8      	ldr	r0, [r7, #12]
 80013a8:	f7ff fec8 	bl	800113c <ucg_dev_ic_st7735_18>
 80013ac:	4603      	mov	r3, r0
 80013ae:	e00f      	b.n	80013d0 <ucg_dev_st7735_18x128x128+0x74>
 80013b0:	687b      	ldr	r3, [r7, #4]
 80013b2:	2280      	movs	r2, #128	; 0x80
 80013b4:	801a      	strh	r2, [r3, #0]
 80013b6:	687b      	ldr	r3, [r7, #4]
 80013b8:	2280      	movs	r2, #128	; 0x80
 80013ba:	805a      	strh	r2, [r3, #2]
 80013bc:	2301      	movs	r3, #1
 80013be:	e007      	b.n	80013d0 <ucg_dev_st7735_18x128x128+0x74>
 80013c0:	f9b7 300a 	ldrsh.w	r3, [r7, #10]
 80013c4:	687a      	ldr	r2, [r7, #4]
 80013c6:	4619      	mov	r1, r3
 80013c8:	68f8      	ldr	r0, [r7, #12]
 80013ca:	f7ff feb7 	bl	800113c <ucg_dev_ic_st7735_18>
 80013ce:	4603      	mov	r3, r0
 80013d0:	4618      	mov	r0, r3
 80013d2:	3710      	adds	r7, #16
 80013d4:	46bd      	mov	sp, r7
 80013d6:	bd80      	pop	{r7, pc}
 80013d8:	08003364 	.word	0x08003364

080013dc <ucg_font_get_byte>:
 80013dc:	b480      	push	{r7}
 80013de:	b083      	sub	sp, #12
 80013e0:	af00      	add	r7, sp, #0
 80013e2:	6078      	str	r0, [r7, #4]
 80013e4:	460b      	mov	r3, r1
 80013e6:	70fb      	strb	r3, [r7, #3]
 80013e8:	78fb      	ldrb	r3, [r7, #3]
 80013ea:	687a      	ldr	r2, [r7, #4]
 80013ec:	4413      	add	r3, r2
 80013ee:	607b      	str	r3, [r7, #4]
 80013f0:	687b      	ldr	r3, [r7, #4]
 80013f2:	781b      	ldrb	r3, [r3, #0]
 80013f4:	4618      	mov	r0, r3
 80013f6:	370c      	adds	r7, #12
 80013f8:	46bd      	mov	sp, r7
 80013fa:	f85d 7b04 	ldr.w	r7, [sp], #4
 80013fe:	4770      	bx	lr

08001400 <ucg_font_get_word>:
 8001400:	b480      	push	{r7}
 8001402:	b085      	sub	sp, #20
 8001404:	af00      	add	r7, sp, #0
 8001406:	6078      	str	r0, [r7, #4]
 8001408:	460b      	mov	r3, r1
 800140a:	70fb      	strb	r3, [r7, #3]
 800140c:	78fb      	ldrb	r3, [r7, #3]
 800140e:	687a      	ldr	r2, [r7, #4]
 8001410:	4413      	add	r3, r2
 8001412:	607b      	str	r3, [r7, #4]
 8001414:	687b      	ldr	r3, [r7, #4]
 8001416:	781b      	ldrb	r3, [r3, #0]
 8001418:	81fb      	strh	r3, [r7, #14]
 800141a:	687b      	ldr	r3, [r7, #4]
 800141c:	3301      	adds	r3, #1
 800141e:	607b      	str	r3, [r7, #4]
 8001420:	89fb      	ldrh	r3, [r7, #14]
 8001422:	021b      	lsls	r3, r3, #8
 8001424:	81fb      	strh	r3, [r7, #14]
 8001426:	687b      	ldr	r3, [r7, #4]
 8001428:	781b      	ldrb	r3, [r3, #0]
 800142a:	b29a      	uxth	r2, r3
 800142c:	89fb      	ldrh	r3, [r7, #14]
 800142e:	4413      	add	r3, r2
 8001430:	81fb      	strh	r3, [r7, #14]
 8001432:	89fb      	ldrh	r3, [r7, #14]
 8001434:	4618      	mov	r0, r3
 8001436:	3714      	adds	r7, #20
 8001438:	46bd      	mov	sp, r7
 800143a:	f85d 7b04 	ldr.w	r7, [sp], #4
 800143e:	4770      	bx	lr

08001440 <ucg_read_font_info>:
 8001440:	b580      	push	{r7, lr}
 8001442:	b082      	sub	sp, #8
 8001444:	af00      	add	r7, sp, #0
 8001446:	6078      	str	r0, [r7, #4]
 8001448:	6039      	str	r1, [r7, #0]
 800144a:	2100      	movs	r1, #0
 800144c:	6838      	ldr	r0, [r7, #0]
 800144e:	f7ff ffc5 	bl	80013dc <ucg_font_get_byte>
 8001452:	4603      	mov	r3, r0
 8001454:	461a      	mov	r2, r3
 8001456:	687b      	ldr	r3, [r7, #4]
 8001458:	701a      	strb	r2, [r3, #0]
 800145a:	2101      	movs	r1, #1
 800145c:	6838      	ldr	r0, [r7, #0]
 800145e:	f7ff ffbd 	bl	80013dc <ucg_font_get_byte>
 8001462:	4603      	mov	r3, r0
 8001464:	461a      	mov	r2, r3
 8001466:	687b      	ldr	r3, [r7, #4]
 8001468:	705a      	strb	r2, [r3, #1]
 800146a:	2102      	movs	r1, #2
 800146c:	6838      	ldr	r0, [r7, #0]
 800146e:	f7ff ffb5 	bl	80013dc <ucg_font_get_byte>
 8001472:	4603      	mov	r3, r0
 8001474:	461a      	mov	r2, r3
 8001476:	687b      	ldr	r3, [r7, #4]
 8001478:	709a      	strb	r2, [r3, #2]
 800147a:	2103      	movs	r1, #3
 800147c:	6838      	ldr	r0, [r7, #0]
 800147e:	f7ff ffad 	bl	80013dc <ucg_font_get_byte>
 8001482:	4603      	mov	r3, r0
 8001484:	461a      	mov	r2, r3
 8001486:	687b      	ldr	r3, [r7, #4]
 8001488:	70da      	strb	r2, [r3, #3]
 800148a:	2104      	movs	r1, #4
 800148c:	6838      	ldr	r0, [r7, #0]
 800148e:	f7ff ffa5 	bl	80013dc <ucg_font_get_byte>
 8001492:	4603      	mov	r3, r0
 8001494:	461a      	mov	r2, r3
 8001496:	687b      	ldr	r3, [r7, #4]
 8001498:	711a      	strb	r2, [r3, #4]
 800149a:	2105      	movs	r1, #5
 800149c:	6838      	ldr	r0, [r7, #0]
 800149e:	f7ff ff9d 	bl	80013dc <ucg_font_get_byte>
 80014a2:	4603      	mov	r3, r0
 80014a4:	461a      	mov	r2, r3
 80014a6:	687b      	ldr	r3, [r7, #4]
 80014a8:	715a      	strb	r2, [r3, #5]
 80014aa:	2106      	movs	r1, #6
 80014ac:	6838      	ldr	r0, [r7, #0]
 80014ae:	f7ff ff95 	bl	80013dc <ucg_font_get_byte>
 80014b2:	4603      	mov	r3, r0
 80014b4:	461a      	mov	r2, r3
 80014b6:	687b      	ldr	r3, [r7, #4]
 80014b8:	719a      	strb	r2, [r3, #6]
 80014ba:	2107      	movs	r1, #7
 80014bc:	6838      	ldr	r0, [r7, #0]
 80014be:	f7ff ff8d 	bl	80013dc <ucg_font_get_byte>
 80014c2:	4603      	mov	r3, r0
 80014c4:	461a      	mov	r2, r3
 80014c6:	687b      	ldr	r3, [r7, #4]
 80014c8:	71da      	strb	r2, [r3, #7]
 80014ca:	2108      	movs	r1, #8
 80014cc:	6838      	ldr	r0, [r7, #0]
 80014ce:	f7ff ff85 	bl	80013dc <ucg_font_get_byte>
 80014d2:	4603      	mov	r3, r0
 80014d4:	461a      	mov	r2, r3
 80014d6:	687b      	ldr	r3, [r7, #4]
 80014d8:	721a      	strb	r2, [r3, #8]
 80014da:	2109      	movs	r1, #9
 80014dc:	6838      	ldr	r0, [r7, #0]
 80014de:	f7ff ff7d 	bl	80013dc <ucg_font_get_byte>
 80014e2:	4603      	mov	r3, r0
 80014e4:	b25a      	sxtb	r2, r3
 80014e6:	687b      	ldr	r3, [r7, #4]
 80014e8:	725a      	strb	r2, [r3, #9]
 80014ea:	210a      	movs	r1, #10
 80014ec:	6838      	ldr	r0, [r7, #0]
 80014ee:	f7ff ff75 	bl	80013dc <ucg_font_get_byte>
 80014f2:	4603      	mov	r3, r0
 80014f4:	b25a      	sxtb	r2, r3
 80014f6:	687b      	ldr	r3, [r7, #4]
 80014f8:	729a      	strb	r2, [r3, #10]
 80014fa:	210b      	movs	r1, #11
 80014fc:	6838      	ldr	r0, [r7, #0]
 80014fe:	f7ff ff6d 	bl	80013dc <ucg_font_get_byte>
 8001502:	4603      	mov	r3, r0
 8001504:	b25a      	sxtb	r2, r3
 8001506:	687b      	ldr	r3, [r7, #4]
 8001508:	72da      	strb	r2, [r3, #11]
 800150a:	210c      	movs	r1, #12
 800150c:	6838      	ldr	r0, [r7, #0]
 800150e:	f7ff ff65 	bl	80013dc <ucg_font_get_byte>
 8001512:	4603      	mov	r3, r0
 8001514:	b25a      	sxtb	r2, r3
 8001516:	687b      	ldr	r3, [r7, #4]
 8001518:	731a      	strb	r2, [r3, #12]
 800151a:	210d      	movs	r1, #13
 800151c:	6838      	ldr	r0, [r7, #0]
 800151e:	f7ff ff5d 	bl	80013dc <ucg_font_get_byte>
 8001522:	4603      	mov	r3, r0
 8001524:	b25a      	sxtb	r2, r3
 8001526:	687b      	ldr	r3, [r7, #4]
 8001528:	735a      	strb	r2, [r3, #13]
 800152a:	210e      	movs	r1, #14
 800152c:	6838      	ldr	r0, [r7, #0]
 800152e:	f7ff ff55 	bl	80013dc <ucg_font_get_byte>
 8001532:	4603      	mov	r3, r0
 8001534:	b25a      	sxtb	r2, r3
 8001536:	687b      	ldr	r3, [r7, #4]
 8001538:	739a      	strb	r2, [r3, #14]
 800153a:	210f      	movs	r1, #15
 800153c:	6838      	ldr	r0, [r7, #0]
 800153e:	f7ff ff4d 	bl	80013dc <ucg_font_get_byte>
 8001542:	4603      	mov	r3, r0
 8001544:	b25a      	sxtb	r2, r3
 8001546:	687b      	ldr	r3, [r7, #4]
 8001548:	73da      	strb	r2, [r3, #15]
 800154a:	2110      	movs	r1, #16
 800154c:	6838      	ldr	r0, [r7, #0]
 800154e:	f7ff ff45 	bl	80013dc <ucg_font_get_byte>
 8001552:	4603      	mov	r3, r0
 8001554:	b25a      	sxtb	r2, r3
 8001556:	687b      	ldr	r3, [r7, #4]
 8001558:	741a      	strb	r2, [r3, #16]
 800155a:	2111      	movs	r1, #17
 800155c:	6838      	ldr	r0, [r7, #0]
 800155e:	f7ff ff4f 	bl	8001400 <ucg_font_get_word>
 8001562:	4603      	mov	r3, r0
 8001564:	461a      	mov	r2, r3
 8001566:	687b      	ldr	r3, [r7, #4]
 8001568:	825a      	strh	r2, [r3, #18]
 800156a:	2113      	movs	r1, #19
 800156c:	6838      	ldr	r0, [r7, #0]
 800156e:	f7ff ff47 	bl	8001400 <ucg_font_get_word>
 8001572:	4603      	mov	r3, r0
 8001574:	461a      	mov	r2, r3
 8001576:	687b      	ldr	r3, [r7, #4]
 8001578:	829a      	strh	r2, [r3, #20]
 800157a:	bf00      	nop
 800157c:	3708      	adds	r7, #8
 800157e:	46bd      	mov	sp, r7
 8001580:	bd80      	pop	{r7, pc}

08001582 <ucg_font_decode_get_unsigned_bits>:
 8001582:	b480      	push	{r7}
 8001584:	b085      	sub	sp, #20
 8001586:	af00      	add	r7, sp, #0
 8001588:	6078      	str	r0, [r7, #4]
 800158a:	460b      	mov	r3, r1
 800158c:	70fb      	strb	r3, [r7, #3]
 800158e:	687b      	ldr	r3, [r7, #4]
 8001590:	7b1b      	ldrb	r3, [r3, #12]
 8001592:	737b      	strb	r3, [r7, #13]
 8001594:	687b      	ldr	r3, [r7, #4]
 8001596:	681b      	ldr	r3, [r3, #0]
 8001598:	781b      	ldrb	r3, [r3, #0]
 800159a:	73fb      	strb	r3, [r7, #15]
 800159c:	7bfa      	ldrb	r2, [r7, #15]
 800159e:	7b7b      	ldrb	r3, [r7, #13]
 80015a0:	fa42 f303 	asr.w	r3, r2, r3
 80015a4:	73fb      	strb	r3, [r7, #15]
 80015a6:	7b7b      	ldrb	r3, [r7, #13]
 80015a8:	73bb      	strb	r3, [r7, #14]
 80015aa:	7bba      	ldrb	r2, [r7, #14]
 80015ac:	78fb      	ldrb	r3, [r7, #3]
 80015ae:	4413      	add	r3, r2
 80015b0:	73bb      	strb	r3, [r7, #14]
 80015b2:	7bbb      	ldrb	r3, [r7, #14]
 80015b4:	2b07      	cmp	r3, #7
 80015b6:	d91a      	bls.n	80015ee <ucg_font_decode_get_unsigned_bits+0x6c>
 80015b8:	2308      	movs	r3, #8
 80015ba:	733b      	strb	r3, [r7, #12]
 80015bc:	7b3a      	ldrb	r2, [r7, #12]
 80015be:	7b7b      	ldrb	r3, [r7, #13]
 80015c0:	1ad3      	subs	r3, r2, r3
 80015c2:	733b      	strb	r3, [r7, #12]
 80015c4:	687b      	ldr	r3, [r7, #4]
 80015c6:	681b      	ldr	r3, [r3, #0]
 80015c8:	1c5a      	adds	r2, r3, #1
 80015ca:	687b      	ldr	r3, [r7, #4]
 80015cc:	601a      	str	r2, [r3, #0]
 80015ce:	687b      	ldr	r3, [r7, #4]
 80015d0:	681b      	ldr	r3, [r3, #0]
 80015d2:	781b      	ldrb	r3, [r3, #0]
 80015d4:	461a      	mov	r2, r3
 80015d6:	7b3b      	ldrb	r3, [r7, #12]
 80015d8:	fa02 f303 	lsl.w	r3, r2, r3
 80015dc:	b25a      	sxtb	r2, r3
 80015de:	f997 300f 	ldrsb.w	r3, [r7, #15]
 80015e2:	4313      	orrs	r3, r2
 80015e4:	b25b      	sxtb	r3, r3
 80015e6:	73fb      	strb	r3, [r7, #15]
 80015e8:	7bbb      	ldrb	r3, [r7, #14]
 80015ea:	3b08      	subs	r3, #8
 80015ec:	73bb      	strb	r3, [r7, #14]
 80015ee:	78fb      	ldrb	r3, [r7, #3]
 80015f0:	f04f 32ff 	mov.w	r2, #4294967295
 80015f4:	fa02 f303 	lsl.w	r3, r2, r3
 80015f8:	b2db      	uxtb	r3, r3
 80015fa:	43db      	mvns	r3, r3
 80015fc:	b2da      	uxtb	r2, r3
 80015fe:	7bfb      	ldrb	r3, [r7, #15]
 8001600:	4013      	ands	r3, r2
 8001602:	73fb      	strb	r3, [r7, #15]
 8001604:	687b      	ldr	r3, [r7, #4]
 8001606:	7bba      	ldrb	r2, [r7, #14]
 8001608:	731a      	strb	r2, [r3, #12]
 800160a:	7bfb      	ldrb	r3, [r7, #15]
 800160c:	4618      	mov	r0, r3
 800160e:	3714      	adds	r7, #20
 8001610:	46bd      	mov	sp, r7
 8001612:	f85d 7b04 	ldr.w	r7, [sp], #4
 8001616:	4770      	bx	lr

08001618 <ucg_font_decode_get_signed_bits>:
 8001618:	b580      	push	{r7, lr}
 800161a:	b084      	sub	sp, #16
 800161c:	af00      	add	r7, sp, #0
 800161e:	6078      	str	r0, [r7, #4]
 8001620:	460b      	mov	r3, r1
 8001622:	70fb      	strb	r3, [r7, #3]
 8001624:	78fb      	ldrb	r3, [r7, #3]
 8001626:	4619      	mov	r1, r3
 8001628:	6878      	ldr	r0, [r7, #4]
 800162a:	f7ff ffaa 	bl	8001582 <ucg_font_decode_get_unsigned_bits>
 800162e:	4603      	mov	r3, r0
 8001630:	73fb      	strb	r3, [r7, #15]
 8001632:	2301      	movs	r3, #1
 8001634:	73bb      	strb	r3, [r7, #14]
 8001636:	78fb      	ldrb	r3, [r7, #3]
 8001638:	3b01      	subs	r3, #1
 800163a:	70fb      	strb	r3, [r7, #3]
 800163c:	f997 200e 	ldrsb.w	r2, [r7, #14]
 8001640:	78fb      	ldrb	r3, [r7, #3]
 8001642:	fa02 f303 	lsl.w	r3, r2, r3
 8001646:	73bb      	strb	r3, [r7, #14]
 8001648:	7bfa      	ldrb	r2, [r7, #15]
 800164a:	7bbb      	ldrb	r3, [r7, #14]
 800164c:	1ad3      	subs	r3, r2, r3
 800164e:	b2db      	uxtb	r3, r3
 8001650:	73fb      	strb	r3, [r7, #15]
 8001652:	f997 300f 	ldrsb.w	r3, [r7, #15]
 8001656:	4618      	mov	r0, r3
 8001658:	3710      	adds	r7, #16
 800165a:	46bd      	mov	sp, r7
 800165c:	bd80      	pop	{r7, pc}

0800165e <ucg_add_vector_y>:
 800165e:	b490      	push	{r4, r7}
 8001660:	b082      	sub	sp, #8
 8001662:	af00      	add	r7, sp, #0
 8001664:	4604      	mov	r4, r0
 8001666:	4608      	mov	r0, r1
 8001668:	4611      	mov	r1, r2
 800166a:	461a      	mov	r2, r3
 800166c:	4623      	mov	r3, r4
 800166e:	80fb      	strh	r3, [r7, #6]
 8001670:	4603      	mov	r3, r0
 8001672:	717b      	strb	r3, [r7, #5]
 8001674:	460b      	mov	r3, r1
 8001676:	713b      	strb	r3, [r7, #4]
 8001678:	4613      	mov	r3, r2
 800167a:	70fb      	strb	r3, [r7, #3]
 800167c:	78fb      	ldrb	r3, [r7, #3]
 800167e:	2b01      	cmp	r3, #1
 8001680:	d00b      	beq.n	800169a <ucg_add_vector_y+0x3c>
 8001682:	2b02      	cmp	r3, #2
 8001684:	d011      	beq.n	80016aa <ucg_add_vector_y+0x4c>
 8001686:	2b00      	cmp	r3, #0
 8001688:	d117      	bne.n	80016ba <ucg_add_vector_y+0x5c>
 800168a:	f997 3004 	ldrsb.w	r3, [r7, #4]
 800168e:	b29a      	uxth	r2, r3
 8001690:	88fb      	ldrh	r3, [r7, #6]
 8001692:	4413      	add	r3, r2
 8001694:	b29b      	uxth	r3, r3
 8001696:	80fb      	strh	r3, [r7, #6]
 8001698:	e017      	b.n	80016ca <ucg_add_vector_y+0x6c>
 800169a:	f997 3005 	ldrsb.w	r3, [r7, #5]
 800169e:	b29a      	uxth	r2, r3
 80016a0:	88fb      	ldrh	r3, [r7, #6]
 80016a2:	4413      	add	r3, r2
 80016a4:	b29b      	uxth	r3, r3
 80016a6:	80fb      	strh	r3, [r7, #6]
 80016a8:	e00f      	b.n	80016ca <ucg_add_vector_y+0x6c>
 80016aa:	88fa      	ldrh	r2, [r7, #6]
 80016ac:	f997 3004 	ldrsb.w	r3, [r7, #4]
 80016b0:	b29b      	uxth	r3, r3
 80016b2:	1ad3      	subs	r3, r2, r3
 80016b4:	b29b      	uxth	r3, r3
 80016b6:	80fb      	strh	r3, [r7, #6]
 80016b8:	e007      	b.n	80016ca <ucg_add_vector_y+0x6c>
 80016ba:	88fa      	ldrh	r2, [r7, #6]
 80016bc:	f997 3005 	ldrsb.w	r3, [r7, #5]
 80016c0:	b29b      	uxth	r3, r3
 80016c2:	1ad3      	subs	r3, r2, r3
 80016c4:	b29b      	uxth	r3, r3
 80016c6:	80fb      	strh	r3, [r7, #6]
 80016c8:	bf00      	nop
 80016ca:	f9b7 3006 	ldrsh.w	r3, [r7, #6]
 80016ce:	4618      	mov	r0, r3
 80016d0:	3708      	adds	r7, #8
 80016d2:	46bd      	mov	sp, r7
 80016d4:	bc90      	pop	{r4, r7}
 80016d6:	4770      	bx	lr

080016d8 <ucg_add_vector_x>:
 80016d8:	b490      	push	{r4, r7}
 80016da:	b082      	sub	sp, #8
 80016dc:	af00      	add	r7, sp, #0
 80016de:	4604      	mov	r4, r0
 80016e0:	4608      	mov	r0, r1
 80016e2:	4611      	mov	r1, r2
 80016e4:	461a      	mov	r2, r3
 80016e6:	4623      	mov	r3, r4
 80016e8:	80fb      	strh	r3, [r7, #6]
 80016ea:	4603      	mov	r3, r0
 80016ec:	717b      	strb	r3, [r7, #5]
 80016ee:	460b      	mov	r3, r1
 80016f0:	713b      	strb	r3, [r7, #4]
 80016f2:	4613      	mov	r3, r2
 80016f4:	70fb      	strb	r3, [r7, #3]
 80016f6:	78fb      	ldrb	r3, [r7, #3]
 80016f8:	2b01      	cmp	r3, #1
 80016fa:	d00b      	beq.n	8001714 <ucg_add_vector_x+0x3c>
 80016fc:	2b02      	cmp	r3, #2
 80016fe:	d011      	beq.n	8001724 <ucg_add_vector_x+0x4c>
 8001700:	2b00      	cmp	r3, #0
 8001702:	d117      	bne.n	8001734 <ucg_add_vector_x+0x5c>
 8001704:	f997 3005 	ldrsb.w	r3, [r7, #5]
 8001708:	b29a      	uxth	r2, r3
 800170a:	88fb      	ldrh	r3, [r7, #6]
 800170c:	4413      	add	r3, r2
 800170e:	b29b      	uxth	r3, r3
 8001710:	80fb      	strh	r3, [r7, #6]
 8001712:	e017      	b.n	8001744 <ucg_add_vector_x+0x6c>
 8001714:	88fa      	ldrh	r2, [r7, #6]
 8001716:	f997 3004 	ldrsb.w	r3, [r7, #4]
 800171a:	b29b      	uxth	r3, r3
 800171c:	1ad3      	subs	r3, r2, r3
 800171e:	b29b      	uxth	r3, r3
 8001720:	80fb      	strh	r3, [r7, #6]
 8001722:	e00f      	b.n	8001744 <ucg_add_vector_x+0x6c>
 8001724:	88fa      	ldrh	r2, [r7, #6]
 8001726:	f997 3005 	ldrsb.w	r3, [r7, #5]
 800172a:	b29b      	uxth	r3, r3
 800172c:	1ad3      	subs	r3, r2, r3
 800172e:	b29b      	uxth	r3, r3
 8001730:	80fb      	strh	r3, [r7, #6]
 8001732:	e007      	b.n	8001744 <ucg_add_vector_x+0x6c>
 8001734:	f997 3004 	ldrsb.w	r3, [r7, #4]
 8001738:	b29a      	uxth	r2, r3
 800173a:	88fb      	ldrh	r3, [r7, #6]
 800173c:	4413      	add	r3, r2
 800173e:	b29b      	uxth	r3, r3
 8001740:	80fb      	strh	r3, [r7, #6]
 8001742:	bf00      	nop
 8001744:	f9b7 3006 	ldrsh.w	r3, [r7, #6]
 8001748:	4618      	mov	r0, r3
 800174a:	3708      	adds	r7, #8
 800174c:	46bd      	mov	sp, r7
 800174e:	bc90      	pop	{r4, r7}
 8001750:	4770      	bx	lr

08001752 <ucg_font_decode_len>:
 8001752:	b590      	push	{r4, r7, lr}
 8001754:	b089      	sub	sp, #36	; 0x24
 8001756:	af02      	add	r7, sp, #8
 8001758:	6078      	str	r0, [r7, #4]
 800175a:	460b      	mov	r3, r1
 800175c:	70fb      	strb	r3, [r7, #3]
 800175e:	4613      	mov	r3, r2
 8001760:	70bb      	strb	r3, [r7, #2]
 8001762:	687b      	ldr	r3, [r7, #4]
 8001764:	3380      	adds	r3, #128	; 0x80
 8001766:	613b      	str	r3, [r7, #16]
 8001768:	78fb      	ldrb	r3, [r7, #3]
 800176a:	75fb      	strb	r3, [r7, #23]
 800176c:	693b      	ldr	r3, [r7, #16]
 800176e:	f993 3008 	ldrsb.w	r3, [r3, #8]
 8001772:	757b      	strb	r3, [r7, #21]
 8001774:	693b      	ldr	r3, [r7, #16]
 8001776:	f993 3009 	ldrsb.w	r3, [r3, #9]
 800177a:	753b      	strb	r3, [r7, #20]
 800177c:	693b      	ldr	r3, [r7, #16]
 800177e:	f993 300a 	ldrsb.w	r3, [r3, #10]
 8001782:	73fb      	strb	r3, [r7, #15]
 8001784:	7bfa      	ldrb	r2, [r7, #15]
 8001786:	7d7b      	ldrb	r3, [r7, #21]
 8001788:	1ad3      	subs	r3, r2, r3
 800178a:	73fb      	strb	r3, [r7, #15]
 800178c:	7bfb      	ldrb	r3, [r7, #15]
 800178e:	75bb      	strb	r3, [r7, #22]
 8001790:	7dfa      	ldrb	r2, [r7, #23]
 8001792:	7bfb      	ldrb	r3, [r7, #15]
 8001794:	429a      	cmp	r2, r3
 8001796:	d201      	bcs.n	800179c <ucg_font_decode_len+0x4a>
 8001798:	7dfb      	ldrb	r3, [r7, #23]
 800179a:	75bb      	strb	r3, [r7, #22]
 800179c:	693b      	ldr	r3, [r7, #16]
 800179e:	889b      	ldrh	r3, [r3, #4]
 80017a0:	81bb      	strh	r3, [r7, #12]
 80017a2:	693b      	ldr	r3, [r7, #16]
 80017a4:	88db      	ldrh	r3, [r3, #6]
 80017a6:	817b      	strh	r3, [r7, #10]
 80017a8:	f997 1015 	ldrsb.w	r1, [r7, #21]
 80017ac:	f997 2014 	ldrsb.w	r2, [r7, #20]
 80017b0:	693b      	ldr	r3, [r7, #16]
 80017b2:	7b9b      	ldrb	r3, [r3, #14]
 80017b4:	f9b7 000c 	ldrsh.w	r0, [r7, #12]
 80017b8:	f7ff ff8e 	bl	80016d8 <ucg_add_vector_x>
 80017bc:	4603      	mov	r3, r0
 80017be:	81bb      	strh	r3, [r7, #12]
 80017c0:	f997 1015 	ldrsb.w	r1, [r7, #21]
 80017c4:	f997 2014 	ldrsb.w	r2, [r7, #20]
 80017c8:	693b      	ldr	r3, [r7, #16]
 80017ca:	7b9b      	ldrb	r3, [r3, #14]
 80017cc:	f9b7 000a 	ldrsh.w	r0, [r7, #10]
 80017d0:	f7ff ff45 	bl	800165e <ucg_add_vector_y>
 80017d4:	4603      	mov	r3, r0
 80017d6:	817b      	strh	r3, [r7, #10]
 80017d8:	78bb      	ldrb	r3, [r7, #2]
 80017da:	2b00      	cmp	r3, #0
 80017dc:	d011      	beq.n	8001802 <ucg_font_decode_len+0xb0>
 80017de:	7dbb      	ldrb	r3, [r7, #22]
 80017e0:	b21c      	sxth	r4, r3
 80017e2:	693b      	ldr	r3, [r7, #16]
 80017e4:	7b9b      	ldrb	r3, [r3, #14]
 80017e6:	b21b      	sxth	r3, r3
 80017e8:	f9b7 000a 	ldrsh.w	r0, [r7, #10]
 80017ec:	f9b7 100c 	ldrsh.w	r1, [r7, #12]
 80017f0:	2200      	movs	r2, #0
 80017f2:	9201      	str	r2, [sp, #4]
 80017f4:	9300      	str	r3, [sp, #0]
 80017f6:	4623      	mov	r3, r4
 80017f8:	4602      	mov	r2, r0
 80017fa:	6878      	ldr	r0, [r7, #4]
 80017fc:	f000 fc1c 	bl	8002038 <ucg_Draw90Line>
 8001800:	e014      	b.n	800182c <ucg_font_decode_len+0xda>
 8001802:	693b      	ldr	r3, [r7, #16]
 8001804:	7b5b      	ldrb	r3, [r3, #13]
 8001806:	2b00      	cmp	r3, #0
 8001808:	d110      	bne.n	800182c <ucg_font_decode_len+0xda>
 800180a:	7dbb      	ldrb	r3, [r7, #22]
 800180c:	b21c      	sxth	r4, r3
 800180e:	693b      	ldr	r3, [r7, #16]
 8001810:	7b9b      	ldrb	r3, [r3, #14]
 8001812:	b21b      	sxth	r3, r3
 8001814:	f9b7 000a 	ldrsh.w	r0, [r7, #10]
 8001818:	f9b7 100c 	ldrsh.w	r1, [r7, #12]
 800181c:	2201      	movs	r2, #1
 800181e:	9201      	str	r2, [sp, #4]
 8001820:	9300      	str	r3, [sp, #0]
 8001822:	4623      	mov	r3, r4
 8001824:	4602      	mov	r2, r0
 8001826:	6878      	ldr	r0, [r7, #4]
 8001828:	f000 fc06 	bl	8002038 <ucg_Draw90Line>
 800182c:	7dfa      	ldrb	r2, [r7, #23]
 800182e:	7bfb      	ldrb	r3, [r7, #15]
 8001830:	429a      	cmp	r2, r3
 8001832:	d309      	bcc.n	8001848 <ucg_font_decode_len+0xf6>
 8001834:	7dfa      	ldrb	r2, [r7, #23]
 8001836:	7bfb      	ldrb	r3, [r7, #15]
 8001838:	1ad3      	subs	r3, r2, r3
 800183a:	75fb      	strb	r3, [r7, #23]
 800183c:	2300      	movs	r3, #0
 800183e:	757b      	strb	r3, [r7, #21]
 8001840:	7d3b      	ldrb	r3, [r7, #20]
 8001842:	3301      	adds	r3, #1
 8001844:	753b      	strb	r3, [r7, #20]
 8001846:	e799      	b.n	800177c <ucg_font_decode_len+0x2a>
 8001848:	bf00      	nop
 800184a:	7d7a      	ldrb	r2, [r7, #21]
 800184c:	7dfb      	ldrb	r3, [r7, #23]
 800184e:	4413      	add	r3, r2
 8001850:	757b      	strb	r3, [r7, #21]
 8001852:	f997 2015 	ldrsb.w	r2, [r7, #21]
 8001856:	693b      	ldr	r3, [r7, #16]
 8001858:	721a      	strb	r2, [r3, #8]
 800185a:	f997 2014 	ldrsb.w	r2, [r7, #20]
 800185e:	693b      	ldr	r3, [r7, #16]
 8001860:	725a      	strb	r2, [r3, #9]
 8001862:	bf00      	nop
 8001864:	371c      	adds	r7, #28
 8001866:	46bd      	mov	sp, r7
 8001868:	bd90      	pop	{r4, r7, pc}

0800186a <ucg_font_setup_decode>:
 800186a:	b580      	push	{r7, lr}
 800186c:	b084      	sub	sp, #16
 800186e:	af00      	add	r7, sp, #0
 8001870:	6078      	str	r0, [r7, #4]
 8001872:	6039      	str	r1, [r7, #0]
 8001874:	687b      	ldr	r3, [r7, #4]
 8001876:	3380      	adds	r3, #128	; 0x80
 8001878:	60fb      	str	r3, [r7, #12]
 800187a:	68fb      	ldr	r3, [r7, #12]
 800187c:	683a      	ldr	r2, [r7, #0]
 800187e:	601a      	str	r2, [r3, #0]
 8001880:	68fb      	ldr	r3, [r7, #12]
 8001882:	2200      	movs	r2, #0
 8001884:	731a      	strb	r2, [r3, #12]
 8001886:	68fb      	ldr	r3, [r7, #12]
 8001888:	681b      	ldr	r3, [r3, #0]
 800188a:	1c5a      	adds	r2, r3, #1
 800188c:	68fb      	ldr	r3, [r7, #12]
 800188e:	601a      	str	r2, [r3, #0]
 8001890:	68fb      	ldr	r3, [r7, #12]
 8001892:	681b      	ldr	r3, [r3, #0]
 8001894:	1c5a      	adds	r2, r3, #1
 8001896:	68fb      	ldr	r3, [r7, #12]
 8001898:	601a      	str	r2, [r3, #0]
 800189a:	687b      	ldr	r3, [r7, #4]
 800189c:	f893 3094 	ldrb.w	r3, [r3, #148]	; 0x94
 80018a0:	4619      	mov	r1, r3
 80018a2:	68f8      	ldr	r0, [r7, #12]
 80018a4:	f7ff fe6d 	bl	8001582 <ucg_font_decode_get_unsigned_bits>
 80018a8:	4603      	mov	r3, r0
 80018aa:	b25a      	sxtb	r2, r3
 80018ac:	68fb      	ldr	r3, [r7, #12]
 80018ae:	729a      	strb	r2, [r3, #10]
 80018b0:	687b      	ldr	r3, [r7, #4]
 80018b2:	f893 3095 	ldrb.w	r3, [r3, #149]	; 0x95
 80018b6:	4619      	mov	r1, r3
 80018b8:	68f8      	ldr	r0, [r7, #12]
 80018ba:	f7ff fe62 	bl	8001582 <ucg_font_decode_get_unsigned_bits>
 80018be:	4603      	mov	r3, r0
 80018c0:	b25a      	sxtb	r2, r3
 80018c2:	68fb      	ldr	r3, [r7, #12]
 80018c4:	72da      	strb	r2, [r3, #11]
 80018c6:	bf00      	nop
 80018c8:	3710      	adds	r7, #16
 80018ca:	46bd      	mov	sp, r7
 80018cc:	bd80      	pop	{r7, pc}

080018ce <ucg_font_decode_glyph>:
 80018ce:	b580      	push	{r7, lr}
 80018d0:	b084      	sub	sp, #16
 80018d2:	af00      	add	r7, sp, #0
 80018d4:	6078      	str	r0, [r7, #4]
 80018d6:	6039      	str	r1, [r7, #0]
 80018d8:	6839      	ldr	r1, [r7, #0]
 80018da:	6878      	ldr	r0, [r7, #4]
 80018dc:	f7ff ffc5 	bl	800186a <ucg_font_setup_decode>
 80018e0:	687b      	ldr	r3, [r7, #4]
 80018e2:	f893 308b 	ldrb.w	r3, [r3, #139]	; 0x8b
 80018e6:	73fb      	strb	r3, [r7, #15]
 80018e8:	687b      	ldr	r3, [r7, #4]
 80018ea:	f103 0280 	add.w	r2, r3, #128	; 0x80
 80018ee:	687b      	ldr	r3, [r7, #4]
 80018f0:	f893 3096 	ldrb.w	r3, [r3, #150]	; 0x96
 80018f4:	4619      	mov	r1, r3
 80018f6:	4610      	mov	r0, r2
 80018f8:	f7ff fe8e 	bl	8001618 <ucg_font_decode_get_signed_bits>
 80018fc:	4603      	mov	r3, r0
 80018fe:	73bb      	strb	r3, [r7, #14]
 8001900:	687b      	ldr	r3, [r7, #4]
 8001902:	f103 0280 	add.w	r2, r3, #128	; 0x80
 8001906:	687b      	ldr	r3, [r7, #4]
 8001908:	f893 3097 	ldrb.w	r3, [r3, #151]	; 0x97
 800190c:	4619      	mov	r1, r3
 800190e:	4610      	mov	r0, r2
 8001910:	f7ff fe82 	bl	8001618 <ucg_font_decode_get_signed_bits>
 8001914:	4603      	mov	r3, r0
 8001916:	737b      	strb	r3, [r7, #13]
 8001918:	687b      	ldr	r3, [r7, #4]
 800191a:	f103 0280 	add.w	r2, r3, #128	; 0x80
 800191e:	687b      	ldr	r3, [r7, #4]
 8001920:	f893 3098 	ldrb.w	r3, [r3, #152]	; 0x98
 8001924:	4619      	mov	r1, r3
 8001926:	4610      	mov	r0, r2
 8001928:	f7ff fe76 	bl	8001618 <ucg_font_decode_get_signed_bits>
 800192c:	4603      	mov	r3, r0
 800192e:	733b      	strb	r3, [r7, #12]
 8001930:	687b      	ldr	r3, [r7, #4]
 8001932:	f993 308a 	ldrsb.w	r3, [r3, #138]	; 0x8a
 8001936:	2b00      	cmp	r3, #0
 8001938:	dd69      	ble.n	8001a0e <ucg_font_decode_glyph+0x140>
 800193a:	687b      	ldr	r3, [r7, #4]
 800193c:	f9b3 0084 	ldrsh.w	r0, [r3, #132]	; 0x84
 8001940:	7bfa      	ldrb	r2, [r7, #15]
 8001942:	7b7b      	ldrb	r3, [r7, #13]
 8001944:	4413      	add	r3, r2
 8001946:	b2db      	uxtb	r3, r3
 8001948:	425b      	negs	r3, r3
 800194a:	b2db      	uxtb	r3, r3
 800194c:	b25a      	sxtb	r2, r3
 800194e:	687b      	ldr	r3, [r7, #4]
 8001950:	f893 308e 	ldrb.w	r3, [r3, #142]	; 0x8e
 8001954:	f997 100e 	ldrsb.w	r1, [r7, #14]
 8001958:	f7ff febe 	bl	80016d8 <ucg_add_vector_x>
 800195c:	4603      	mov	r3, r0
 800195e:	461a      	mov	r2, r3
 8001960:	687b      	ldr	r3, [r7, #4]
 8001962:	f8a3 2084 	strh.w	r2, [r3, #132]	; 0x84
 8001966:	687b      	ldr	r3, [r7, #4]
 8001968:	f9b3 0086 	ldrsh.w	r0, [r3, #134]	; 0x86
 800196c:	7bfa      	ldrb	r2, [r7, #15]
 800196e:	7b7b      	ldrb	r3, [r7, #13]
 8001970:	4413      	add	r3, r2
 8001972:	b2db      	uxtb	r3, r3
 8001974:	425b      	negs	r3, r3
 8001976:	b2db      	uxtb	r3, r3
 8001978:	b25a      	sxtb	r2, r3
 800197a:	687b      	ldr	r3, [r7, #4]
 800197c:	f893 308e 	ldrb.w	r3, [r3, #142]	; 0x8e
 8001980:	f997 100e 	ldrsb.w	r1, [r7, #14]
 8001984:	f7ff fe6b 	bl	800165e <ucg_add_vector_y>
 8001988:	4603      	mov	r3, r0
 800198a:	461a      	mov	r2, r3
 800198c:	687b      	ldr	r3, [r7, #4]
 800198e:	f8a3 2086 	strh.w	r2, [r3, #134]	; 0x86
 8001992:	687b      	ldr	r3, [r7, #4]
 8001994:	2200      	movs	r2, #0
 8001996:	f883 2088 	strb.w	r2, [r3, #136]	; 0x88
 800199a:	687b      	ldr	r3, [r7, #4]
 800199c:	2200      	movs	r2, #0
 800199e:	f883 2089 	strb.w	r2, [r3, #137]	; 0x89
 80019a2:	687b      	ldr	r3, [r7, #4]
 80019a4:	f103 0280 	add.w	r2, r3, #128	; 0x80
 80019a8:	687b      	ldr	r3, [r7, #4]
 80019aa:	f893 3092 	ldrb.w	r3, [r3, #146]	; 0x92
 80019ae:	4619      	mov	r1, r3
 80019b0:	4610      	mov	r0, r2
 80019b2:	f7ff fde6 	bl	8001582 <ucg_font_decode_get_unsigned_bits>
 80019b6:	4603      	mov	r3, r0
 80019b8:	72fb      	strb	r3, [r7, #11]
 80019ba:	687b      	ldr	r3, [r7, #4]
 80019bc:	f103 0280 	add.w	r2, r3, #128	; 0x80
 80019c0:	687b      	ldr	r3, [r7, #4]
 80019c2:	f893 3093 	ldrb.w	r3, [r3, #147]	; 0x93
 80019c6:	4619      	mov	r1, r3
 80019c8:	4610      	mov	r0, r2
 80019ca:	f7ff fdda 	bl	8001582 <ucg_font_decode_get_unsigned_bits>
 80019ce:	4603      	mov	r3, r0
 80019d0:	72bb      	strb	r3, [r7, #10]
 80019d2:	7afb      	ldrb	r3, [r7, #11]
 80019d4:	2200      	movs	r2, #0
 80019d6:	4619      	mov	r1, r3
 80019d8:	6878      	ldr	r0, [r7, #4]
 80019da:	f7ff feba 	bl	8001752 <ucg_font_decode_len>
 80019de:	7abb      	ldrb	r3, [r7, #10]
 80019e0:	2201      	movs	r2, #1
 80019e2:	4619      	mov	r1, r3
 80019e4:	6878      	ldr	r0, [r7, #4]
 80019e6:	f7ff feb4 	bl	8001752 <ucg_font_decode_len>
 80019ea:	687b      	ldr	r3, [r7, #4]
 80019ec:	3380      	adds	r3, #128	; 0x80
 80019ee:	2101      	movs	r1, #1
 80019f0:	4618      	mov	r0, r3
 80019f2:	f7ff fdc6 	bl	8001582 <ucg_font_decode_get_unsigned_bits>
 80019f6:	4603      	mov	r3, r0
 80019f8:	2b00      	cmp	r3, #0
 80019fa:	d1ea      	bne.n	80019d2 <ucg_font_decode_glyph+0x104>
 80019fc:	687b      	ldr	r3, [r7, #4]
 80019fe:	f993 3089 	ldrsb.w	r3, [r3, #137]	; 0x89
 8001a02:	f997 200f 	ldrsb.w	r2, [r7, #15]
 8001a06:	429a      	cmp	r2, r3
 8001a08:	dd00      	ble.n	8001a0c <ucg_font_decode_glyph+0x13e>
 8001a0a:	e7ca      	b.n	80019a2 <ucg_font_decode_glyph+0xd4>
 8001a0c:	bf00      	nop
 8001a0e:	f997 300c 	ldrsb.w	r3, [r7, #12]
 8001a12:	4618      	mov	r0, r3
 8001a14:	3710      	adds	r7, #16
 8001a16:	46bd      	mov	sp, r7
 8001a18:	bd80      	pop	{r7, pc}

08001a1a <ucg_font_get_glyph_data>:
 8001a1a:	b480      	push	{r7}
 8001a1c:	b085      	sub	sp, #20
 8001a1e:	af00      	add	r7, sp, #0
 8001a20:	6078      	str	r0, [r7, #4]
 8001a22:	460b      	mov	r3, r1
 8001a24:	70fb      	strb	r3, [r7, #3]
 8001a26:	687b      	ldr	r3, [r7, #4]
 8001a28:	6f9b      	ldr	r3, [r3, #120]	; 0x78
 8001a2a:	60fb      	str	r3, [r7, #12]
 8001a2c:	68fb      	ldr	r3, [r7, #12]
 8001a2e:	3315      	adds	r3, #21
 8001a30:	60fb      	str	r3, [r7, #12]
 8001a32:	78fb      	ldrb	r3, [r7, #3]
 8001a34:	2b60      	cmp	r3, #96	; 0x60
 8001a36:	d907      	bls.n	8001a48 <ucg_font_get_glyph_data+0x2e>
 8001a38:	687b      	ldr	r3, [r7, #4]
 8001a3a:	f8b3 30a4 	ldrh.w	r3, [r3, #164]	; 0xa4
 8001a3e:	461a      	mov	r2, r3
 8001a40:	68fb      	ldr	r3, [r7, #12]
 8001a42:	4413      	add	r3, r2
 8001a44:	60fb      	str	r3, [r7, #12]
 8001a46:	e009      	b.n	8001a5c <ucg_font_get_glyph_data+0x42>
 8001a48:	78fb      	ldrb	r3, [r7, #3]
 8001a4a:	2b40      	cmp	r3, #64	; 0x40
 8001a4c:	d906      	bls.n	8001a5c <ucg_font_get_glyph_data+0x42>
 8001a4e:	687b      	ldr	r3, [r7, #4]
 8001a50:	f8b3 30a2 	ldrh.w	r3, [r3, #162]	; 0xa2
 8001a54:	461a      	mov	r2, r3
 8001a56:	68fb      	ldr	r3, [r7, #12]
 8001a58:	4413      	add	r3, r2
 8001a5a:	60fb      	str	r3, [r7, #12]
 8001a5c:	68fb      	ldr	r3, [r7, #12]
 8001a5e:	3301      	adds	r3, #1
 8001a60:	781b      	ldrb	r3, [r3, #0]
 8001a62:	2b00      	cmp	r3, #0
 8001a64:	d00e      	beq.n	8001a84 <ucg_font_get_glyph_data+0x6a>
 8001a66:	68fb      	ldr	r3, [r7, #12]
 8001a68:	781b      	ldrb	r3, [r3, #0]
 8001a6a:	78fa      	ldrb	r2, [r7, #3]
 8001a6c:	429a      	cmp	r2, r3
 8001a6e:	d101      	bne.n	8001a74 <ucg_font_get_glyph_data+0x5a>
 8001a70:	68fb      	ldr	r3, [r7, #12]
 8001a72:	e009      	b.n	8001a88 <ucg_font_get_glyph_data+0x6e>
 8001a74:	68fb      	ldr	r3, [r7, #12]
 8001a76:	3301      	adds	r3, #1
 8001a78:	781b      	ldrb	r3, [r3, #0]
 8001a7a:	461a      	mov	r2, r3
 8001a7c:	68fb      	ldr	r3, [r7, #12]
 8001a7e:	4413      	add	r3, r2
 8001a80:	60fb      	str	r3, [r7, #12]
 8001a82:	e7eb      	b.n	8001a5c <ucg_font_get_glyph_data+0x42>
 8001a84:	bf00      	nop
 8001a86:	2300      	movs	r3, #0
 8001a88:	4618      	mov	r0, r3
 8001a8a:	3714      	adds	r7, #20
 8001a8c:	46bd      	mov	sp, r7
 8001a8e:	f85d 7b04 	ldr.w	r7, [sp], #4
 8001a92:	4770      	bx	lr

08001a94 <ucg_font_draw_glyph>:
 8001a94:	b580      	push	{r7, lr}
 8001a96:	b086      	sub	sp, #24
 8001a98:	af00      	add	r7, sp, #0
 8001a9a:	60f8      	str	r0, [r7, #12]
 8001a9c:	4608      	mov	r0, r1
 8001a9e:	4611      	mov	r1, r2
 8001aa0:	461a      	mov	r2, r3
 8001aa2:	4603      	mov	r3, r0
 8001aa4:	817b      	strh	r3, [r7, #10]
 8001aa6:	460b      	mov	r3, r1
 8001aa8:	813b      	strh	r3, [r7, #8]
 8001aaa:	4613      	mov	r3, r2
 8001aac:	71fb      	strb	r3, [r7, #7]
 8001aae:	2300      	movs	r3, #0
 8001ab0:	82fb      	strh	r3, [r7, #22]
 8001ab2:	68fb      	ldr	r3, [r7, #12]
 8001ab4:	897a      	ldrh	r2, [r7, #10]
 8001ab6:	f8a3 2084 	strh.w	r2, [r3, #132]	; 0x84
 8001aba:	68fb      	ldr	r3, [r7, #12]
 8001abc:	893a      	ldrh	r2, [r7, #8]
 8001abe:	f8a3 2086 	strh.w	r2, [r3, #134]	; 0x86
 8001ac2:	68fb      	ldr	r3, [r7, #12]
 8001ac4:	79fa      	ldrb	r2, [r7, #7]
 8001ac6:	f883 208e 	strb.w	r2, [r3, #142]	; 0x8e
 8001aca:	f897 3020 	ldrb.w	r3, [r7, #32]
 8001ace:	4619      	mov	r1, r3
 8001ad0:	68f8      	ldr	r0, [r7, #12]
 8001ad2:	f7ff ffa2 	bl	8001a1a <ucg_font_get_glyph_data>
 8001ad6:	6138      	str	r0, [r7, #16]
 8001ad8:	693b      	ldr	r3, [r7, #16]
 8001ada:	2b00      	cmp	r3, #0
 8001adc:	d005      	beq.n	8001aea <ucg_font_draw_glyph+0x56>
 8001ade:	6939      	ldr	r1, [r7, #16]
 8001ae0:	68f8      	ldr	r0, [r7, #12]
 8001ae2:	f7ff fef4 	bl	80018ce <ucg_font_decode_glyph>
 8001ae6:	4603      	mov	r3, r0
 8001ae8:	82fb      	strh	r3, [r7, #22]
 8001aea:	f9b7 3016 	ldrsh.w	r3, [r7, #22]
 8001aee:	4618      	mov	r0, r3
 8001af0:	3718      	adds	r7, #24
 8001af2:	46bd      	mov	sp, r7
 8001af4:	bd80      	pop	{r7, pc}

08001af6 <ucg_GetGlyphWidth>:
 8001af6:	b580      	push	{r7, lr}
 8001af8:	b084      	sub	sp, #16
 8001afa:	af00      	add	r7, sp, #0
 8001afc:	6078      	str	r0, [r7, #4]
 8001afe:	460b      	mov	r3, r1
 8001b00:	70fb      	strb	r3, [r7, #3]
 8001b02:	78fb      	ldrb	r3, [r7, #3]
 8001b04:	4619      	mov	r1, r3
 8001b06:	6878      	ldr	r0, [r7, #4]
 8001b08:	f7ff ff87 	bl	8001a1a <ucg_font_get_glyph_data>
 8001b0c:	60f8      	str	r0, [r7, #12]
 8001b0e:	68fb      	ldr	r3, [r7, #12]
 8001b10:	2b00      	cmp	r3, #0
 8001b12:	d101      	bne.n	8001b18 <ucg_GetGlyphWidth+0x22>
 8001b14:	2300      	movs	r3, #0
 8001b16:	e022      	b.n	8001b5e <ucg_GetGlyphWidth+0x68>
 8001b18:	68f9      	ldr	r1, [r7, #12]
 8001b1a:	6878      	ldr	r0, [r7, #4]
 8001b1c:	f7ff fea5 	bl	800186a <ucg_font_setup_decode>
 8001b20:	687b      	ldr	r3, [r7, #4]
 8001b22:	f103 0280 	add.w	r2, r3, #128	; 0x80
 8001b26:	687b      	ldr	r3, [r7, #4]
 8001b28:	f893 3096 	ldrb.w	r3, [r3, #150]	; 0x96
 8001b2c:	4619      	mov	r1, r3
 8001b2e:	4610      	mov	r0, r2
 8001b30:	f7ff fd72 	bl	8001618 <ucg_font_decode_get_signed_bits>
 8001b34:	687b      	ldr	r3, [r7, #4]
 8001b36:	f103 0280 	add.w	r2, r3, #128	; 0x80
 8001b3a:	687b      	ldr	r3, [r7, #4]
 8001b3c:	f893 3097 	ldrb.w	r3, [r3, #151]	; 0x97
 8001b40:	4619      	mov	r1, r3
 8001b42:	4610      	mov	r0, r2
 8001b44:	f7ff fd68 	bl	8001618 <ucg_font_decode_get_signed_bits>
 8001b48:	687b      	ldr	r3, [r7, #4]
 8001b4a:	f103 0280 	add.w	r2, r3, #128	; 0x80
 8001b4e:	687b      	ldr	r3, [r7, #4]
 8001b50:	f893 3098 	ldrb.w	r3, [r3, #152]	; 0x98
 8001b54:	4619      	mov	r1, r3
 8001b56:	4610      	mov	r0, r2
 8001b58:	f7ff fd5e 	bl	8001618 <ucg_font_decode_get_signed_bits>
 8001b5c:	4603      	mov	r3, r0
 8001b5e:	4618      	mov	r0, r3
 8001b60:	3710      	adds	r7, #16
 8001b62:	46bd      	mov	sp, r7
 8001b64:	bd80      	pop	{r7, pc}

08001b66 <ucg_SetFontMode>:
 8001b66:	b480      	push	{r7}
 8001b68:	b083      	sub	sp, #12
 8001b6a:	af00      	add	r7, sp, #0
 8001b6c:	6078      	str	r0, [r7, #4]
 8001b6e:	460b      	mov	r3, r1
 8001b70:	70fb      	strb	r3, [r7, #3]
 8001b72:	687b      	ldr	r3, [r7, #4]
 8001b74:	78fa      	ldrb	r2, [r7, #3]
 8001b76:	f883 208d 	strb.w	r2, [r3, #141]	; 0x8d
 8001b7a:	bf00      	nop
 8001b7c:	370c      	adds	r7, #12
 8001b7e:	46bd      	mov	sp, r7
 8001b80:	f85d 7b04 	ldr.w	r7, [sp], #4
 8001b84:	4770      	bx	lr
	...

08001b88 <ucg_DrawGlyph>:
 8001b88:	b580      	push	{r7, lr}
 8001b8a:	b086      	sub	sp, #24
 8001b8c:	af02      	add	r7, sp, #8
 8001b8e:	60f8      	str	r0, [r7, #12]
 8001b90:	4608      	mov	r0, r1
 8001b92:	4611      	mov	r1, r2
 8001b94:	461a      	mov	r2, r3
 8001b96:	4603      	mov	r3, r0
 8001b98:	817b      	strh	r3, [r7, #10]
 8001b9a:	460b      	mov	r3, r1
 8001b9c:	813b      	strh	r3, [r7, #8]
 8001b9e:	4613      	mov	r3, r2
 8001ba0:	71fb      	strb	r3, [r7, #7]
 8001ba2:	79fb      	ldrb	r3, [r7, #7]
 8001ba4:	2b03      	cmp	r3, #3
 8001ba6:	d837      	bhi.n	8001c18 <ucg_DrawGlyph+0x90>
 8001ba8:	a201      	add	r2, pc, #4	; (adr r2, 8001bb0 <ucg_DrawGlyph+0x28>)
 8001baa:	f852 f023 	ldr.w	pc, [r2, r3, lsl #2]
 8001bae:	bf00      	nop
 8001bb0:	08001bc1 	.word	0x08001bc1
 8001bb4:	08001bd7 	.word	0x08001bd7
 8001bb8:	08001bed 	.word	0x08001bed
 8001bbc:	08001c03 	.word	0x08001c03
 8001bc0:	68fb      	ldr	r3, [r7, #12]
 8001bc2:	6fdb      	ldr	r3, [r3, #124]	; 0x7c
 8001bc4:	68f8      	ldr	r0, [r7, #12]
 8001bc6:	4798      	blx	r3
 8001bc8:	4603      	mov	r3, r0
 8001bca:	b29a      	uxth	r2, r3
 8001bcc:	893b      	ldrh	r3, [r7, #8]
 8001bce:	4413      	add	r3, r2
 8001bd0:	b29b      	uxth	r3, r3
 8001bd2:	813b      	strh	r3, [r7, #8]
 8001bd4:	e020      	b.n	8001c18 <ucg_DrawGlyph+0x90>
 8001bd6:	68fb      	ldr	r3, [r7, #12]
 8001bd8:	6fdb      	ldr	r3, [r3, #124]	; 0x7c
 8001bda:	68f8      	ldr	r0, [r7, #12]
 8001bdc:	4798      	blx	r3
 8001bde:	4603      	mov	r3, r0
 8001be0:	897a      	ldrh	r2, [r7, #10]
 8001be2:	b29b      	uxth	r3, r3
 8001be4:	1ad3      	subs	r3, r2, r3
 8001be6:	b29b      	uxth	r3, r3
 8001be8:	817b      	strh	r3, [r7, #10]
 8001bea:	e015      	b.n	8001c18 <ucg_DrawGlyph+0x90>
 8001bec:	68fb      	ldr	r3, [r7, #12]
 8001bee:	6fdb      	ldr	r3, [r3, #124]	; 0x7c
 8001bf0:	68f8      	ldr	r0, [r7, #12]
 8001bf2:	4798      	blx	r3
 8001bf4:	4603      	mov	r3, r0
 8001bf6:	893a      	ldrh	r2, [r7, #8]
 8001bf8:	b29b      	uxth	r3, r3
 8001bfa:	1ad3      	subs	r3, r2, r3
 8001bfc:	b29b      	uxth	r3, r3
 8001bfe:	813b      	strh	r3, [r7, #8]
 8001c00:	e00a      	b.n	8001c18 <ucg_DrawGlyph+0x90>
 8001c02:	68fb      	ldr	r3, [r7, #12]
 8001c04:	6fdb      	ldr	r3, [r3, #124]	; 0x7c
 8001c06:	68f8      	ldr	r0, [r7, #12]
 8001c08:	4798      	blx	r3
 8001c0a:	4603      	mov	r3, r0
 8001c0c:	b29a      	uxth	r2, r3
 8001c0e:	897b      	ldrh	r3, [r7, #10]
 8001c10:	4413      	add	r3, r2
 8001c12:	b29b      	uxth	r3, r3
 8001c14:	817b      	strh	r3, [r7, #10]
 8001c16:	bf00      	nop
 8001c18:	79f8      	ldrb	r0, [r7, #7]
 8001c1a:	f9b7 2008 	ldrsh.w	r2, [r7, #8]
 8001c1e:	f9b7 100a 	ldrsh.w	r1, [r7, #10]
 8001c22:	7e3b      	ldrb	r3, [r7, #24]
 8001c24:	9300      	str	r3, [sp, #0]
 8001c26:	4603      	mov	r3, r0
 8001c28:	68f8      	ldr	r0, [r7, #12]
 8001c2a:	f7ff ff33 	bl	8001a94 <ucg_font_draw_glyph>
 8001c2e:	4603      	mov	r3, r0
 8001c30:	4618      	mov	r0, r3
 8001c32:	3710      	adds	r7, #16
 8001c34:	46bd      	mov	sp, r7
 8001c36:	bd80      	pop	{r7, pc}

08001c38 <task_drawString>:
 8001c38:	b580      	push	{r7, lr}
 8001c3a:	b086      	sub	sp, #24
 8001c3c:	af02      	add	r7, sp, #8
 8001c3e:	6078      	str	r0, [r7, #4]
 8001c40:	2300      	movs	r3, #0
 8001c42:	81fb      	strh	r3, [r7, #14]
 8001c44:	687b      	ldr	r3, [r7, #4]
 8001c46:	60bb      	str	r3, [r7, #8]
 8001c48:	4b45      	ldr	r3, [pc, #276]	; (8001d60 <task_drawString+0x128>)
 8001c4a:	781b      	ldrb	r3, [r3, #0]
 8001c4c:	2b00      	cmp	r3, #0
 8001c4e:	d002      	beq.n	8001c56 <task_drawString+0x1e>
 8001c50:	2b01      	cmp	r3, #1
 8001c52:	d01e      	beq.n	8001c92 <task_drawString+0x5a>
 8001c54:	e07b      	b.n	8001d4e <task_drawString+0x116>
 8001c56:	4843      	ldr	r0, [pc, #268]	; (8001d64 <task_drawString+0x12c>)
 8001c58:	f000 fb81 	bl	800235e <bufNumItems>
 8001c5c:	4603      	mov	r3, r0
 8001c5e:	2b00      	cmp	r3, #0
 8001c60:	d007      	beq.n	8001c72 <task_drawString+0x3a>
 8001c62:	4941      	ldr	r1, [pc, #260]	; (8001d68 <task_drawString+0x130>)
 8001c64:	483f      	ldr	r0, [pc, #252]	; (8001d64 <task_drawString+0x12c>)
 8001c66:	f000 fc13 	bl	8002490 <bufDeDat>
 8001c6a:	4b3d      	ldr	r3, [pc, #244]	; (8001d60 <task_drawString+0x128>)
 8001c6c:	2201      	movs	r2, #1
 8001c6e:	701a      	strb	r2, [r3, #0]
 8001c70:	e071      	b.n	8001d56 <task_drawString+0x11e>
 8001c72:	4b3e      	ldr	r3, [pc, #248]	; (8001d6c <task_drawString+0x134>)
 8001c74:	781b      	ldrb	r3, [r3, #0]
 8001c76:	2bff      	cmp	r3, #255	; 0xff
 8001c78:	d007      	beq.n	8001c8a <task_drawString+0x52>
 8001c7a:	4b3c      	ldr	r3, [pc, #240]	; (8001d6c <task_drawString+0x134>)
 8001c7c:	781b      	ldrb	r3, [r3, #0]
 8001c7e:	4618      	mov	r0, r3
 8001c80:	f7fe fcf0 	bl	8000664 <TimerStop>
 8001c84:	4b39      	ldr	r3, [pc, #228]	; (8001d6c <task_drawString+0x134>)
 8001c86:	22ff      	movs	r2, #255	; 0xff
 8001c88:	701a      	strb	r2, [r3, #0]
 8001c8a:	4b35      	ldr	r3, [pc, #212]	; (8001d60 <task_drawString+0x128>)
 8001c8c:	2200      	movs	r2, #0
 8001c8e:	701a      	strb	r2, [r3, #0]
 8001c90:	e061      	b.n	8001d56 <task_drawString+0x11e>
 8001c92:	4b35      	ldr	r3, [pc, #212]	; (8001d68 <task_drawString+0x130>)
 8001c94:	689b      	ldr	r3, [r3, #8]
 8001c96:	781b      	ldrb	r3, [r3, #0]
 8001c98:	2b00      	cmp	r3, #0
 8001c9a:	d054      	beq.n	8001d46 <task_drawString+0x10e>
 8001c9c:	4b32      	ldr	r3, [pc, #200]	; (8001d68 <task_drawString+0x130>)
 8001c9e:	f9b3 1000 	ldrsh.w	r1, [r3]
 8001ca2:	4b31      	ldr	r3, [pc, #196]	; (8001d68 <task_drawString+0x130>)
 8001ca4:	f9b3 2002 	ldrsh.w	r2, [r3, #2]
 8001ca8:	4b2f      	ldr	r3, [pc, #188]	; (8001d68 <task_drawString+0x130>)
 8001caa:	7918      	ldrb	r0, [r3, #4]
 8001cac:	4b2e      	ldr	r3, [pc, #184]	; (8001d68 <task_drawString+0x130>)
 8001cae:	689b      	ldr	r3, [r3, #8]
 8001cb0:	781b      	ldrb	r3, [r3, #0]
 8001cb2:	9300      	str	r3, [sp, #0]
 8001cb4:	4603      	mov	r3, r0
 8001cb6:	68b8      	ldr	r0, [r7, #8]
 8001cb8:	f7ff ff66 	bl	8001b88 <ucg_DrawGlyph>
 8001cbc:	4603      	mov	r3, r0
 8001cbe:	81fb      	strh	r3, [r7, #14]
 8001cc0:	4b29      	ldr	r3, [pc, #164]	; (8001d68 <task_drawString+0x130>)
 8001cc2:	791b      	ldrb	r3, [r3, #4]
 8001cc4:	2b03      	cmp	r3, #3
 8001cc6:	d837      	bhi.n	8001d38 <task_drawString+0x100>
 8001cc8:	a201      	add	r2, pc, #4	; (adr r2, 8001cd0 <task_drawString+0x98>)
 8001cca:	f852 f023 	ldr.w	pc, [r2, r3, lsl #2]
 8001cce:	bf00      	nop
 8001cd0:	08001ce1 	.word	0x08001ce1
 8001cd4:	08001cf7 	.word	0x08001cf7
 8001cd8:	08001d0d 	.word	0x08001d0d
 8001cdc:	08001d23 	.word	0x08001d23
 8001ce0:	4b21      	ldr	r3, [pc, #132]	; (8001d68 <task_drawString+0x130>)
 8001ce2:	f9b3 3000 	ldrsh.w	r3, [r3]
 8001ce6:	b29a      	uxth	r2, r3
 8001ce8:	89fb      	ldrh	r3, [r7, #14]
 8001cea:	4413      	add	r3, r2
 8001cec:	b29b      	uxth	r3, r3
 8001cee:	b21a      	sxth	r2, r3
 8001cf0:	4b1d      	ldr	r3, [pc, #116]	; (8001d68 <task_drawString+0x130>)
 8001cf2:	801a      	strh	r2, [r3, #0]
 8001cf4:	e021      	b.n	8001d3a <task_drawString+0x102>
 8001cf6:	4b1c      	ldr	r3, [pc, #112]	; (8001d68 <task_drawString+0x130>)
 8001cf8:	f9b3 3002 	ldrsh.w	r3, [r3, #2]
 8001cfc:	b29a      	uxth	r2, r3
 8001cfe:	89fb      	ldrh	r3, [r7, #14]
 8001d00:	4413      	add	r3, r2
 8001d02:	b29b      	uxth	r3, r3
 8001d04:	b21a      	sxth	r2, r3
 8001d06:	4b18      	ldr	r3, [pc, #96]	; (8001d68 <task_drawString+0x130>)
 8001d08:	805a      	strh	r2, [r3, #2]
 8001d0a:	e016      	b.n	8001d3a <task_drawString+0x102>
 8001d0c:	4b16      	ldr	r3, [pc, #88]	; (8001d68 <task_drawString+0x130>)
 8001d0e:	f9b3 3000 	ldrsh.w	r3, [r3]
 8001d12:	b29a      	uxth	r2, r3
 8001d14:	89fb      	ldrh	r3, [r7, #14]
 8001d16:	1ad3      	subs	r3, r2, r3
 8001d18:	b29b      	uxth	r3, r3
 8001d1a:	b21a      	sxth	r2, r3
 8001d1c:	4b12      	ldr	r3, [pc, #72]	; (8001d68 <task_drawString+0x130>)
 8001d1e:	801a      	strh	r2, [r3, #0]
 8001d20:	e00b      	b.n	8001d3a <task_drawString+0x102>
 8001d22:	4b11      	ldr	r3, [pc, #68]	; (8001d68 <task_drawString+0x130>)
 8001d24:	f9b3 3002 	ldrsh.w	r3, [r3, #2]
 8001d28:	b29a      	uxth	r2, r3
 8001d2a:	89fb      	ldrh	r3, [r7, #14]
 8001d2c:	1ad3      	subs	r3, r2, r3
 8001d2e:	b29b      	uxth	r3, r3
 8001d30:	b21a      	sxth	r2, r3
 8001d32:	4b0d      	ldr	r3, [pc, #52]	; (8001d68 <task_drawString+0x130>)
 8001d34:	805a      	strh	r2, [r3, #2]
 8001d36:	e000      	b.n	8001d3a <task_drawString+0x102>
 8001d38:	bf00      	nop
 8001d3a:	4b0b      	ldr	r3, [pc, #44]	; (8001d68 <task_drawString+0x130>)
 8001d3c:	689b      	ldr	r3, [r3, #8]
 8001d3e:	3301      	adds	r3, #1
 8001d40:	4a09      	ldr	r2, [pc, #36]	; (8001d68 <task_drawString+0x130>)
 8001d42:	6093      	str	r3, [r2, #8]
 8001d44:	e007      	b.n	8001d56 <task_drawString+0x11e>
 8001d46:	4b06      	ldr	r3, [pc, #24]	; (8001d60 <task_drawString+0x128>)
 8001d48:	2200      	movs	r2, #0
 8001d4a:	701a      	strb	r2, [r3, #0]
 8001d4c:	e003      	b.n	8001d56 <task_drawString+0x11e>
 8001d4e:	4b04      	ldr	r3, [pc, #16]	; (8001d60 <task_drawString+0x128>)
 8001d50:	2200      	movs	r2, #0
 8001d52:	701a      	strb	r2, [r3, #0]
 8001d54:	bf00      	nop
 8001d56:	bf00      	nop
 8001d58:	3710      	adds	r7, #16
 8001d5a:	46bd      	mov	sp, r7
 8001d5c:	bd80      	pop	{r7, pc}
 8001d5e:	bf00      	nop
 8001d60:	2000128c 	.word	0x2000128c
 8001d64:	2000027c 	.word	0x2000027c
 8001d68:	20001290 	.word	0x20001290
 8001d6c:	20000014 	.word	0x20000014

08001d70 <ucg_DrawString>:
 8001d70:	b580      	push	{r7, lr}
 8001d72:	b08a      	sub	sp, #40	; 0x28
 8001d74:	af02      	add	r7, sp, #8
 8001d76:	60f8      	str	r0, [r7, #12]
 8001d78:	4608      	mov	r0, r1
 8001d7a:	4611      	mov	r1, r2
 8001d7c:	461a      	mov	r2, r3
 8001d7e:	4603      	mov	r3, r0
 8001d80:	817b      	strh	r3, [r7, #10]
 8001d82:	460b      	mov	r3, r1
 8001d84:	813b      	strh	r3, [r7, #8]
 8001d86:	4613      	mov	r3, r2
 8001d88:	71fb      	strb	r3, [r7, #7]
 8001d8a:	2300      	movs	r3, #0
 8001d8c:	83fb      	strh	r3, [r7, #30]
 8001d8e:	897b      	ldrh	r3, [r7, #10]
 8001d90:	823b      	strh	r3, [r7, #16]
 8001d92:	893b      	ldrh	r3, [r7, #8]
 8001d94:	827b      	strh	r3, [r7, #18]
 8001d96:	79fb      	ldrb	r3, [r7, #7]
 8001d98:	753b      	strb	r3, [r7, #20]
 8001d9a:	6abb      	ldr	r3, [r7, #40]	; 0x28
 8001d9c:	61bb      	str	r3, [r7, #24]
 8001d9e:	f107 0310 	add.w	r3, r7, #16
 8001da2:	4619      	mov	r1, r3
 8001da4:	480c      	ldr	r0, [pc, #48]	; (8001dd8 <ucg_DrawString+0x68>)
 8001da6:	f000 fb25 	bl	80023f4 <bufEnDat>
 8001daa:	4b0c      	ldr	r3, [pc, #48]	; (8001ddc <ucg_DrawString+0x6c>)
 8001dac:	781b      	ldrb	r3, [r3, #0]
 8001dae:	2bff      	cmp	r3, #255	; 0xff
 8001db0:	d10b      	bne.n	8001dca <ucg_DrawString+0x5a>
 8001db2:	68fb      	ldr	r3, [r7, #12]
 8001db4:	9300      	str	r3, [sp, #0]
 8001db6:	4b0a      	ldr	r3, [pc, #40]	; (8001de0 <ucg_DrawString+0x70>)
 8001db8:	22ff      	movs	r2, #255	; 0xff
 8001dba:	211e      	movs	r1, #30
 8001dbc:	4809      	ldr	r0, [pc, #36]	; (8001de4 <ucg_DrawString+0x74>)
 8001dbe:	f7fe fbef 	bl	80005a0 <TimerStart>
 8001dc2:	4603      	mov	r3, r0
 8001dc4:	461a      	mov	r2, r3
 8001dc6:	4b05      	ldr	r3, [pc, #20]	; (8001ddc <ucg_DrawString+0x6c>)
 8001dc8:	701a      	strb	r2, [r3, #0]
 8001dca:	f9b7 301e 	ldrsh.w	r3, [r7, #30]
 8001dce:	4618      	mov	r0, r3
 8001dd0:	3720      	adds	r7, #32
 8001dd2:	46bd      	mov	sp, r7
 8001dd4:	bd80      	pop	{r7, pc}
 8001dd6:	bf00      	nop
 8001dd8:	2000027c 	.word	0x2000027c
 8001ddc:	20000014 	.word	0x20000014
 8001de0:	08001c39 	.word	0x08001c39
 8001de4:	080032a0 	.word	0x080032a0

08001de8 <ucg_UpdateRefHeight>:
 8001de8:	b480      	push	{r7}
 8001dea:	b083      	sub	sp, #12
 8001dec:	af00      	add	r7, sp, #0
 8001dee:	6078      	str	r0, [r7, #4]
 8001df0:	687b      	ldr	r3, [r7, #4]
 8001df2:	6f9b      	ldr	r3, [r3, #120]	; 0x78
 8001df4:	2b00      	cmp	r3, #0
 8001df6:	d05d      	beq.n	8001eb4 <ucg_UpdateRefHeight+0xcc>
 8001df8:	687b      	ldr	r3, [r7, #4]
 8001dfa:	f993 209d 	ldrsb.w	r2, [r3, #157]	; 0x9d
 8001dfe:	687b      	ldr	r3, [r7, #4]
 8001e00:	f883 20ac 	strb.w	r2, [r3, #172]	; 0xac
 8001e04:	687b      	ldr	r3, [r7, #4]
 8001e06:	f993 209e 	ldrsb.w	r2, [r3, #158]	; 0x9e
 8001e0a:	687b      	ldr	r3, [r7, #4]
 8001e0c:	f883 20ad 	strb.w	r2, [r3, #173]	; 0xad
 8001e10:	687b      	ldr	r3, [r7, #4]
 8001e12:	f893 30ab 	ldrb.w	r3, [r3, #171]	; 0xab
 8001e16:	2b00      	cmp	r3, #0
 8001e18:	d04d      	beq.n	8001eb6 <ucg_UpdateRefHeight+0xce>
 8001e1a:	687b      	ldr	r3, [r7, #4]
 8001e1c:	f893 30ab 	ldrb.w	r3, [r3, #171]	; 0xab
 8001e20:	2b01      	cmp	r3, #1
 8001e22:	d11c      	bne.n	8001e5e <ucg_UpdateRefHeight+0x76>
 8001e24:	687b      	ldr	r3, [r7, #4]
 8001e26:	f993 20ac 	ldrsb.w	r2, [r3, #172]	; 0xac
 8001e2a:	687b      	ldr	r3, [r7, #4]
 8001e2c:	f993 309f 	ldrsb.w	r3, [r3, #159]	; 0x9f
 8001e30:	429a      	cmp	r2, r3
 8001e32:	da05      	bge.n	8001e40 <ucg_UpdateRefHeight+0x58>
 8001e34:	687b      	ldr	r3, [r7, #4]
 8001e36:	f993 209f 	ldrsb.w	r2, [r3, #159]	; 0x9f
 8001e3a:	687b      	ldr	r3, [r7, #4]
 8001e3c:	f883 20ac 	strb.w	r2, [r3, #172]	; 0xac
 8001e40:	687b      	ldr	r3, [r7, #4]
 8001e42:	f993 20ad 	ldrsb.w	r2, [r3, #173]	; 0xad
 8001e46:	687b      	ldr	r3, [r7, #4]
 8001e48:	f993 30a0 	ldrsb.w	r3, [r3, #160]	; 0xa0
 8001e4c:	429a      	cmp	r2, r3
 8001e4e:	dd32      	ble.n	8001eb6 <ucg_UpdateRefHeight+0xce>
 8001e50:	687b      	ldr	r3, [r7, #4]
 8001e52:	f993 20a0 	ldrsb.w	r2, [r3, #160]	; 0xa0
 8001e56:	687b      	ldr	r3, [r7, #4]
 8001e58:	f883 20ad 	strb.w	r2, [r3, #173]	; 0xad
 8001e5c:	e02b      	b.n	8001eb6 <ucg_UpdateRefHeight+0xce>
 8001e5e:	687b      	ldr	r3, [r7, #4]
 8001e60:	f993 30ac 	ldrsb.w	r3, [r3, #172]	; 0xac
 8001e64:	461a      	mov	r2, r3
 8001e66:	687b      	ldr	r3, [r7, #4]
 8001e68:	f993 309a 	ldrsb.w	r3, [r3, #154]	; 0x9a
 8001e6c:	4619      	mov	r1, r3
 8001e6e:	687b      	ldr	r3, [r7, #4]
 8001e70:	f993 309c 	ldrsb.w	r3, [r3, #156]	; 0x9c
 8001e74:	440b      	add	r3, r1
 8001e76:	429a      	cmp	r2, r3
 8001e78:	da0d      	bge.n	8001e96 <ucg_UpdateRefHeight+0xae>
 8001e7a:	687b      	ldr	r3, [r7, #4]
 8001e7c:	f993 309a 	ldrsb.w	r3, [r3, #154]	; 0x9a
 8001e80:	b2da      	uxtb	r2, r3
 8001e82:	687b      	ldr	r3, [r7, #4]
 8001e84:	f993 309c 	ldrsb.w	r3, [r3, #156]	; 0x9c
 8001e88:	b2db      	uxtb	r3, r3
 8001e8a:	4413      	add	r3, r2
 8001e8c:	b2db      	uxtb	r3, r3
 8001e8e:	b25a      	sxtb	r2, r3
 8001e90:	687b      	ldr	r3, [r7, #4]
 8001e92:	f883 20ac 	strb.w	r2, [r3, #172]	; 0xac
 8001e96:	687b      	ldr	r3, [r7, #4]
 8001e98:	f993 20ad 	ldrsb.w	r2, [r3, #173]	; 0xad
 8001e9c:	687b      	ldr	r3, [r7, #4]
 8001e9e:	f993 309c 	ldrsb.w	r3, [r3, #156]	; 0x9c
 8001ea2:	429a      	cmp	r2, r3
 8001ea4:	dd07      	ble.n	8001eb6 <ucg_UpdateRefHeight+0xce>
 8001ea6:	687b      	ldr	r3, [r7, #4]
 8001ea8:	f993 209c 	ldrsb.w	r2, [r3, #156]	; 0x9c
 8001eac:	687b      	ldr	r3, [r7, #4]
 8001eae:	f883 20ad 	strb.w	r2, [r3, #173]	; 0xad
 8001eb2:	e000      	b.n	8001eb6 <ucg_UpdateRefHeight+0xce>
 8001eb4:	bf00      	nop
 8001eb6:	370c      	adds	r7, #12
 8001eb8:	46bd      	mov	sp, r7
 8001eba:	f85d 7b04 	ldr.w	r7, [sp], #4
 8001ebe:	4770      	bx	lr

08001ec0 <ucg_font_calc_vref_font>:
 8001ec0:	b480      	push	{r7}
 8001ec2:	b083      	sub	sp, #12
 8001ec4:	af00      	add	r7, sp, #0
 8001ec6:	6078      	str	r0, [r7, #4]
 8001ec8:	2300      	movs	r3, #0
 8001eca:	4618      	mov	r0, r3
 8001ecc:	370c      	adds	r7, #12
 8001ece:	46bd      	mov	sp, r7
 8001ed0:	f85d 7b04 	ldr.w	r7, [sp], #4
 8001ed4:	4770      	bx	lr
	...

08001ed8 <ucg_SetFontPosBaseline>:
 8001ed8:	b480      	push	{r7}
 8001eda:	b083      	sub	sp, #12
 8001edc:	af00      	add	r7, sp, #0
 8001ede:	6078      	str	r0, [r7, #4]
 8001ee0:	687b      	ldr	r3, [r7, #4]
 8001ee2:	4a04      	ldr	r2, [pc, #16]	; (8001ef4 <ucg_SetFontPosBaseline+0x1c>)
 8001ee4:	67da      	str	r2, [r3, #124]	; 0x7c
 8001ee6:	bf00      	nop
 8001ee8:	370c      	adds	r7, #12
 8001eea:	46bd      	mov	sp, r7
 8001eec:	f85d 7b04 	ldr.w	r7, [sp], #4
 8001ef0:	4770      	bx	lr
 8001ef2:	bf00      	nop
 8001ef4:	08001ec1 	.word	0x08001ec1

08001ef8 <ucg_SetFont>:
 8001ef8:	b580      	push	{r7, lr}
 8001efa:	b082      	sub	sp, #8
 8001efc:	af00      	add	r7, sp, #0
 8001efe:	6078      	str	r0, [r7, #4]
 8001f00:	6039      	str	r1, [r7, #0]
 8001f02:	687b      	ldr	r3, [r7, #4]
 8001f04:	6f9b      	ldr	r3, [r3, #120]	; 0x78
 8001f06:	683a      	ldr	r2, [r7, #0]
 8001f08:	429a      	cmp	r2, r3
 8001f0a:	d012      	beq.n	8001f32 <ucg_SetFont+0x3a>
 8001f0c:	687b      	ldr	r3, [r7, #4]
 8001f0e:	683a      	ldr	r2, [r7, #0]
 8001f10:	679a      	str	r2, [r3, #120]	; 0x78
 8001f12:	687b      	ldr	r3, [r7, #4]
 8001f14:	3390      	adds	r3, #144	; 0x90
 8001f16:	6839      	ldr	r1, [r7, #0]
 8001f18:	4618      	mov	r0, r3
 8001f1a:	f7ff fa91 	bl	8001440 <ucg_read_font_info>
 8001f1e:	6878      	ldr	r0, [r7, #4]
 8001f20:	f7ff ff62 	bl	8001de8 <ucg_UpdateRefHeight>
 8001f24:	f44f 5380 	mov.w	r3, #4096	; 0x1000
 8001f28:	220c      	movs	r2, #12
 8001f2a:	4904      	ldr	r1, [pc, #16]	; (8001f3c <ucg_SetFont+0x44>)
 8001f2c:	4804      	ldr	r0, [pc, #16]	; (8001f40 <ucg_SetFont+0x48>)
 8001f2e:	f000 f9fb 	bl	8002328 <bufInit>
 8001f32:	bf00      	nop
 8001f34:	3708      	adds	r7, #8
 8001f36:	46bd      	mov	sp, r7
 8001f38:	bd80      	pop	{r7, pc}
 8001f3a:	bf00      	nop
 8001f3c:	2000027c 	.word	0x2000027c
 8001f40:	2000028c 	.word	0x2000028c

08001f44 <ucg_GetStrWidth>:
 8001f44:	b580      	push	{r7, lr}
 8001f46:	b084      	sub	sp, #16
 8001f48:	af00      	add	r7, sp, #0
 8001f4a:	6078      	str	r0, [r7, #4]
 8001f4c:	6039      	str	r1, [r7, #0]
 8001f4e:	2300      	movs	r3, #0
 8001f50:	81fb      	strh	r3, [r7, #14]
 8001f52:	683b      	ldr	r3, [r7, #0]
 8001f54:	781b      	ldrb	r3, [r3, #0]
 8001f56:	737b      	strb	r3, [r7, #13]
 8001f58:	7b7b      	ldrb	r3, [r7, #13]
 8001f5a:	2b00      	cmp	r3, #0
 8001f5c:	d00e      	beq.n	8001f7c <ucg_GetStrWidth+0x38>
 8001f5e:	7b7b      	ldrb	r3, [r7, #13]
 8001f60:	4619      	mov	r1, r3
 8001f62:	6878      	ldr	r0, [r7, #4]
 8001f64:	f7ff fdc7 	bl	8001af6 <ucg_GetGlyphWidth>
 8001f68:	4603      	mov	r3, r0
 8001f6a:	b29a      	uxth	r2, r3
 8001f6c:	89fb      	ldrh	r3, [r7, #14]
 8001f6e:	4413      	add	r3, r2
 8001f70:	b29b      	uxth	r3, r3
 8001f72:	81fb      	strh	r3, [r7, #14]
 8001f74:	683b      	ldr	r3, [r7, #0]
 8001f76:	3301      	adds	r3, #1
 8001f78:	603b      	str	r3, [r7, #0]
 8001f7a:	e7ea      	b.n	8001f52 <ucg_GetStrWidth+0xe>
 8001f7c:	bf00      	nop
 8001f7e:	f9b7 300e 	ldrsh.w	r3, [r7, #14]
 8001f82:	4618      	mov	r0, r3
 8001f84:	3710      	adds	r7, #16
 8001f86:	46bd      	mov	sp, r7
 8001f88:	bd80      	pop	{r7, pc}

08001f8a <ucg_init_struct>:
 8001f8a:	b480      	push	{r7}
 8001f8c:	b083      	sub	sp, #12
 8001f8e:	af00      	add	r7, sp, #0
 8001f90:	6078      	str	r0, [r7, #4]
 8001f92:	687a      	ldr	r2, [r7, #4]
 8001f94:	7813      	ldrb	r3, [r2, #0]
 8001f96:	f36f 0300 	bfc	r3, #0, #1
 8001f9a:	7013      	strb	r3, [r2, #0]
 8001f9c:	687b      	ldr	r3, [r7, #4]
 8001f9e:	2200      	movs	r2, #0
 8001fa0:	611a      	str	r2, [r3, #16]
 8001fa2:	687b      	ldr	r3, [r7, #4]
 8001fa4:	2201      	movs	r2, #1
 8001fa6:	865a      	strh	r2, [r3, #50]	; 0x32
 8001fa8:	687b      	ldr	r3, [r7, #4]
 8001faa:	2200      	movs	r2, #0
 8001fac:	679a      	str	r2, [r3, #120]	; 0x78
 8001fae:	687b      	ldr	r3, [r7, #4]
 8001fb0:	2201      	movs	r2, #1
 8001fb2:	f883 208d 	strb.w	r2, [r3, #141]	; 0x8d
 8001fb6:	687b      	ldr	r3, [r7, #4]
 8001fb8:	2200      	movs	r2, #0
 8001fba:	f883 20ae 	strb.w	r2, [r3, #174]	; 0xae
 8001fbe:	687b      	ldr	r3, [r7, #4]
 8001fc0:	2200      	movs	r2, #0
 8001fc2:	f883 20af 	strb.w	r2, [r3, #175]	; 0xaf
 8001fc6:	687b      	ldr	r3, [r7, #4]
 8001fc8:	2200      	movs	r2, #0
 8001fca:	f883 20b0 	strb.w	r2, [r3, #176]	; 0xb0
 8001fce:	bf00      	nop
 8001fd0:	370c      	adds	r7, #12
 8001fd2:	46bd      	mov	sp, r7
 8001fd4:	f85d 7b04 	ldr.w	r7, [sp], #4
 8001fd8:	4770      	bx	lr
	...

08001fdc <ucg_Init>:
 8001fdc:	b580      	push	{r7, lr}
 8001fde:	b086      	sub	sp, #24
 8001fe0:	af00      	add	r7, sp, #0
 8001fe2:	60f8      	str	r0, [r7, #12]
 8001fe4:	60b9      	str	r1, [r7, #8]
 8001fe6:	607a      	str	r2, [r7, #4]
 8001fe8:	603b      	str	r3, [r7, #0]
 8001fea:	68f8      	ldr	r0, [r7, #12]
 8001fec:	f7ff ffcd 	bl	8001f8a <ucg_init_struct>
 8001ff0:	687b      	ldr	r3, [r7, #4]
 8001ff2:	2b00      	cmp	r3, #0
 8001ff4:	d103      	bne.n	8001ffe <ucg_Init+0x22>
 8001ff6:	68fb      	ldr	r3, [r7, #12]
 8001ff8:	4a0e      	ldr	r2, [pc, #56]	; (8002034 <ucg_Init+0x58>)
 8001ffa:	60da      	str	r2, [r3, #12]
 8001ffc:	e002      	b.n	8002004 <ucg_Init+0x28>
 8001ffe:	68fb      	ldr	r3, [r7, #12]
 8002000:	687a      	ldr	r2, [r7, #4]
 8002002:	60da      	str	r2, [r3, #12]
 8002004:	68fb      	ldr	r3, [r7, #12]
 8002006:	68ba      	ldr	r2, [r7, #8]
 8002008:	609a      	str	r2, [r3, #8]
 800200a:	68fb      	ldr	r3, [r7, #12]
 800200c:	683a      	ldr	r2, [r7, #0]
 800200e:	61da      	str	r2, [r3, #28]
 8002010:	68f8      	ldr	r0, [r7, #12]
 8002012:	f7ff ff61 	bl	8001ed8 <ucg_SetFontPosBaseline>
 8002016:	68f8      	ldr	r0, [r7, #12]
 8002018:	f7ff f93a 	bl	8001290 <ucg_PowerUp>
 800201c:	4603      	mov	r3, r0
 800201e:	82fb      	strh	r3, [r7, #22]
 8002020:	68f8      	ldr	r0, [r7, #12]
 8002022:	f7ff f97a 	bl	800131a <ucg_GetDimension>
 8002026:	f9b7 3016 	ldrsh.w	r3, [r7, #22]
 800202a:	4618      	mov	r0, r3
 800202c:	3718      	adds	r7, #24
 800202e:	46bd      	mov	sp, r7
 8002030:	bd80      	pop	{r7, pc}
 8002032:	bf00      	nop
 8002034:	08000ef5 	.word	0x08000ef5

08002038 <ucg_Draw90Line>:
 8002038:	b580      	push	{r7, lr}
 800203a:	b084      	sub	sp, #16
 800203c:	af00      	add	r7, sp, #0
 800203e:	60f8      	str	r0, [r7, #12]
 8002040:	4608      	mov	r0, r1
 8002042:	4611      	mov	r1, r2
 8002044:	461a      	mov	r2, r3
 8002046:	4603      	mov	r3, r0
 8002048:	817b      	strh	r3, [r7, #10]
 800204a:	460b      	mov	r3, r1
 800204c:	813b      	strh	r3, [r7, #8]
 800204e:	4613      	mov	r3, r2
 8002050:	80fb      	strh	r3, [r7, #6]
 8002052:	f9b7 201c 	ldrsh.w	r2, [r7, #28]
 8002056:	68f9      	ldr	r1, [r7, #12]
 8002058:	4613      	mov	r3, r2
 800205a:	005b      	lsls	r3, r3, #1
 800205c:	4413      	add	r3, r2
 800205e:	440b      	add	r3, r1
 8002060:	333a      	adds	r3, #58	; 0x3a
 8002062:	781a      	ldrb	r2, [r3, #0]
 8002064:	68fb      	ldr	r3, [r7, #12]
 8002066:	f883 2028 	strb.w	r2, [r3, #40]	; 0x28
 800206a:	f9b7 201c 	ldrsh.w	r2, [r7, #28]
 800206e:	68f9      	ldr	r1, [r7, #12]
 8002070:	4613      	mov	r3, r2
 8002072:	005b      	lsls	r3, r3, #1
 8002074:	4413      	add	r3, r2
 8002076:	440b      	add	r3, r1
 8002078:	333b      	adds	r3, #59	; 0x3b
 800207a:	781a      	ldrb	r2, [r3, #0]
 800207c:	68fb      	ldr	r3, [r7, #12]
 800207e:	f883 2029 	strb.w	r2, [r3, #41]	; 0x29
 8002082:	f9b7 201c 	ldrsh.w	r2, [r7, #28]
 8002086:	68f9      	ldr	r1, [r7, #12]
 8002088:	4613      	mov	r3, r2
 800208a:	005b      	lsls	r3, r3, #1
 800208c:	4413      	add	r3, r2
 800208e:	440b      	add	r3, r1
 8002090:	333c      	adds	r3, #60	; 0x3c
 8002092:	781a      	ldrb	r2, [r3, #0]
 8002094:	68fb      	ldr	r3, [r7, #12]
 8002096:	f883 202a 	strb.w	r2, [r3, #42]	; 0x2a
 800209a:	68fb      	ldr	r3, [r7, #12]
 800209c:	897a      	ldrh	r2, [r7, #10]
 800209e:	849a      	strh	r2, [r3, #36]	; 0x24
 80020a0:	68fb      	ldr	r3, [r7, #12]
 80020a2:	893a      	ldrh	r2, [r7, #8]
 80020a4:	84da      	strh	r2, [r3, #38]	; 0x26
 80020a6:	68fb      	ldr	r3, [r7, #12]
 80020a8:	88fa      	ldrh	r2, [r7, #6]
 80020aa:	859a      	strh	r2, [r3, #44]	; 0x2c
 80020ac:	68fb      	ldr	r3, [r7, #12]
 80020ae:	8b3a      	ldrh	r2, [r7, #24]
 80020b0:	85da      	strh	r2, [r3, #46]	; 0x2e
 80020b2:	68f8      	ldr	r0, [r7, #12]
 80020b4:	f7ff f943 	bl	800133e <ucg_DrawL90FXWithArg>
 80020b8:	bf00      	nop
 80020ba:	3710      	adds	r7, #16
 80020bc:	46bd      	mov	sp, r7
 80020be:	bd80      	pop	{r7, pc}

080020c0 <ucg_DrawHLine>:
 80020c0:	b580      	push	{r7, lr}
 80020c2:	b086      	sub	sp, #24
 80020c4:	af02      	add	r7, sp, #8
 80020c6:	60f8      	str	r0, [r7, #12]
 80020c8:	4608      	mov	r0, r1
 80020ca:	4611      	mov	r1, r2
 80020cc:	461a      	mov	r2, r3
 80020ce:	4603      	mov	r3, r0
 80020d0:	817b      	strh	r3, [r7, #10]
 80020d2:	460b      	mov	r3, r1
 80020d4:	813b      	strh	r3, [r7, #8]
 80020d6:	4613      	mov	r3, r2
 80020d8:	80fb      	strh	r3, [r7, #6]
 80020da:	f9b7 0006 	ldrsh.w	r0, [r7, #6]
 80020de:	f9b7 2008 	ldrsh.w	r2, [r7, #8]
 80020e2:	f9b7 100a 	ldrsh.w	r1, [r7, #10]
 80020e6:	2300      	movs	r3, #0
 80020e8:	9301      	str	r3, [sp, #4]
 80020ea:	2300      	movs	r3, #0
 80020ec:	9300      	str	r3, [sp, #0]
 80020ee:	4603      	mov	r3, r0
 80020f0:	68f8      	ldr	r0, [r7, #12]
 80020f2:	f7ff ffa1 	bl	8002038 <ucg_Draw90Line>
 80020f6:	bf00      	nop
 80020f8:	3710      	adds	r7, #16
 80020fa:	46bd      	mov	sp, r7
 80020fc:	bd80      	pop	{r7, pc}

080020fe <ucg_SetColor>:
 80020fe:	b480      	push	{r7}
 8002100:	b083      	sub	sp, #12
 8002102:	af00      	add	r7, sp, #0
 8002104:	6078      	str	r0, [r7, #4]
 8002106:	4608      	mov	r0, r1
 8002108:	4611      	mov	r1, r2
 800210a:	461a      	mov	r2, r3
 800210c:	4603      	mov	r3, r0
 800210e:	70fb      	strb	r3, [r7, #3]
 8002110:	460b      	mov	r3, r1
 8002112:	70bb      	strb	r3, [r7, #2]
 8002114:	4613      	mov	r3, r2
 8002116:	707b      	strb	r3, [r7, #1]
 8002118:	78fa      	ldrb	r2, [r7, #3]
 800211a:	6879      	ldr	r1, [r7, #4]
 800211c:	4613      	mov	r3, r2
 800211e:	005b      	lsls	r3, r3, #1
 8002120:	4413      	add	r3, r2
 8002122:	440b      	add	r3, r1
 8002124:	333a      	adds	r3, #58	; 0x3a
 8002126:	78ba      	ldrb	r2, [r7, #2]
 8002128:	701a      	strb	r2, [r3, #0]
 800212a:	78fa      	ldrb	r2, [r7, #3]
 800212c:	6879      	ldr	r1, [r7, #4]
 800212e:	4613      	mov	r3, r2
 8002130:	005b      	lsls	r3, r3, #1
 8002132:	4413      	add	r3, r2
 8002134:	440b      	add	r3, r1
 8002136:	333b      	adds	r3, #59	; 0x3b
 8002138:	787a      	ldrb	r2, [r7, #1]
 800213a:	701a      	strb	r2, [r3, #0]
 800213c:	78fa      	ldrb	r2, [r7, #3]
 800213e:	6879      	ldr	r1, [r7, #4]
 8002140:	4613      	mov	r3, r2
 8002142:	005b      	lsls	r3, r3, #1
 8002144:	4413      	add	r3, r2
 8002146:	440b      	add	r3, r1
 8002148:	333c      	adds	r3, #60	; 0x3c
 800214a:	7c3a      	ldrb	r2, [r7, #16]
 800214c:	701a      	strb	r2, [r3, #0]
 800214e:	bf00      	nop
 8002150:	370c      	adds	r7, #12
 8002152:	46bd      	mov	sp, r7
 8002154:	f85d 7b04 	ldr.w	r7, [sp], #4
 8002158:	4770      	bx	lr

0800215a <ucg_UndoRotate>:
 800215a:	b580      	push	{r7, lr}
 800215c:	b082      	sub	sp, #8
 800215e:	af00      	add	r7, sp, #0
 8002160:	6078      	str	r0, [r7, #4]
 8002162:	687b      	ldr	r3, [r7, #4]
 8002164:	691b      	ldr	r3, [r3, #16]
 8002166:	2b00      	cmp	r3, #0
 8002168:	d006      	beq.n	8002178 <ucg_UndoRotate+0x1e>
 800216a:	687b      	ldr	r3, [r7, #4]
 800216c:	691a      	ldr	r2, [r3, #16]
 800216e:	687b      	ldr	r3, [r7, #4]
 8002170:	609a      	str	r2, [r3, #8]
 8002172:	687b      	ldr	r3, [r7, #4]
 8002174:	2200      	movs	r2, #0
 8002176:	611a      	str	r2, [r3, #16]
 8002178:	6878      	ldr	r0, [r7, #4]
 800217a:	f7ff f8ce 	bl	800131a <ucg_GetDimension>
 800217e:	6878      	ldr	r0, [r7, #4]
 8002180:	f7ff f8b3 	bl	80012ea <ucg_SetMaxClipRange>
 8002184:	bf00      	nop
 8002186:	3708      	adds	r7, #8
 8002188:	46bd      	mov	sp, r7
 800218a:	bd80      	pop	{r7, pc}

0800218c <ucg_rotate_180_xy>:
 800218c:	b480      	push	{r7}
 800218e:	b085      	sub	sp, #20
 8002190:	af00      	add	r7, sp, #0
 8002192:	6078      	str	r0, [r7, #4]
 8002194:	6039      	str	r1, [r7, #0]
 8002196:	687b      	ldr	r3, [r7, #4]
 8002198:	8adb      	ldrh	r3, [r3, #22]
 800219a:	81fb      	strh	r3, [r7, #14]
 800219c:	89fa      	ldrh	r2, [r7, #14]
 800219e:	683b      	ldr	r3, [r7, #0]
 80021a0:	f9b3 3002 	ldrsh.w	r3, [r3, #2]
 80021a4:	b29b      	uxth	r3, r3
 80021a6:	1ad3      	subs	r3, r2, r3
 80021a8:	b29b      	uxth	r3, r3
 80021aa:	81fb      	strh	r3, [r7, #14]
 80021ac:	f9b7 300e 	ldrsh.w	r3, [r7, #14]
 80021b0:	b29b      	uxth	r3, r3
 80021b2:	3b01      	subs	r3, #1
 80021b4:	b29b      	uxth	r3, r3
 80021b6:	81fb      	strh	r3, [r7, #14]
 80021b8:	683b      	ldr	r3, [r7, #0]
 80021ba:	89fa      	ldrh	r2, [r7, #14]
 80021bc:	805a      	strh	r2, [r3, #2]
 80021be:	687b      	ldr	r3, [r7, #4]
 80021c0:	8a9b      	ldrh	r3, [r3, #20]
 80021c2:	81bb      	strh	r3, [r7, #12]
 80021c4:	89ba      	ldrh	r2, [r7, #12]
 80021c6:	683b      	ldr	r3, [r7, #0]
 80021c8:	f9b3 3000 	ldrsh.w	r3, [r3]
 80021cc:	b29b      	uxth	r3, r3
 80021ce:	1ad3      	subs	r3, r2, r3
 80021d0:	b29b      	uxth	r3, r3
 80021d2:	81bb      	strh	r3, [r7, #12]
 80021d4:	f9b7 300c 	ldrsh.w	r3, [r7, #12]
 80021d8:	b29b      	uxth	r3, r3
 80021da:	3b01      	subs	r3, #1
 80021dc:	b29b      	uxth	r3, r3
 80021de:	81bb      	strh	r3, [r7, #12]
 80021e0:	683b      	ldr	r3, [r7, #0]
 80021e2:	89ba      	ldrh	r2, [r7, #12]
 80021e4:	801a      	strh	r2, [r3, #0]
 80021e6:	bf00      	nop
 80021e8:	3714      	adds	r7, #20
 80021ea:	46bd      	mov	sp, r7
 80021ec:	f85d 7b04 	ldr.w	r7, [sp], #4
 80021f0:	4770      	bx	lr
	...

080021f4 <ucg_dev_rotate180>:
 80021f4:	b580      	push	{r7, lr}
 80021f6:	b084      	sub	sp, #16
 80021f8:	af00      	add	r7, sp, #0
 80021fa:	60f8      	str	r0, [r7, #12]
 80021fc:	460b      	mov	r3, r1
 80021fe:	607a      	str	r2, [r7, #4]
 8002200:	817b      	strh	r3, [r7, #10]
 8002202:	f9b7 300a 	ldrsh.w	r3, [r7, #10]
 8002206:	3b0c      	subs	r3, #12
 8002208:	2b0b      	cmp	r3, #11
 800220a:	d866      	bhi.n	80022da <ucg_dev_rotate180+0xe6>
 800220c:	a201      	add	r2, pc, #4	; (adr r2, 8002214 <ucg_dev_rotate180+0x20>)
 800220e:	f852 f023 	ldr.w	pc, [r2, r3, lsl #2]
 8002212:	bf00      	nop
 8002214:	08002263 	.word	0x08002263
 8002218:	080022db 	.word	0x080022db
 800221c:	080022db 	.word	0x080022db
 8002220:	08002245 	.word	0x08002245
 8002224:	080022db 	.word	0x080022db
 8002228:	080022db 	.word	0x080022db
 800222c:	080022db 	.word	0x080022db
 8002230:	080022db 	.word	0x080022db
 8002234:	080022ab 	.word	0x080022ab
 8002238:	080022ab 	.word	0x080022ab
 800223c:	080022db 	.word	0x080022db
 8002240:	080022ab 	.word	0x080022ab
 8002244:	68fb      	ldr	r3, [r7, #12]
 8002246:	691b      	ldr	r3, [r3, #16]
 8002248:	68fa      	ldr	r2, [r7, #12]
 800224a:	3214      	adds	r2, #20
 800224c:	f9b7 100a 	ldrsh.w	r1, [r7, #10]
 8002250:	68f8      	ldr	r0, [r7, #12]
 8002252:	4798      	blx	r3
 8002254:	687a      	ldr	r2, [r7, #4]
 8002256:	68fb      	ldr	r3, [r7, #12]
 8002258:	3314      	adds	r3, #20
 800225a:	6818      	ldr	r0, [r3, #0]
 800225c:	6010      	str	r0, [r2, #0]
 800225e:	2301      	movs	r3, #1
 8002260:	e043      	b.n	80022ea <ucg_dev_rotate180+0xf6>
 8002262:	687b      	ldr	r3, [r7, #4]
 8002264:	f9b3 3002 	ldrsh.w	r3, [r3, #2]
 8002268:	b29a      	uxth	r2, r3
 800226a:	687b      	ldr	r3, [r7, #4]
 800226c:	f9b3 3006 	ldrsh.w	r3, [r3, #6]
 8002270:	b29b      	uxth	r3, r3
 8002272:	4413      	add	r3, r2
 8002274:	b29b      	uxth	r3, r3
 8002276:	3b01      	subs	r3, #1
 8002278:	b29b      	uxth	r3, r3
 800227a:	b21a      	sxth	r2, r3
 800227c:	687b      	ldr	r3, [r7, #4]
 800227e:	805a      	strh	r2, [r3, #2]
 8002280:	687b      	ldr	r3, [r7, #4]
 8002282:	f9b3 3000 	ldrsh.w	r3, [r3]
 8002286:	b29a      	uxth	r2, r3
 8002288:	687b      	ldr	r3, [r7, #4]
 800228a:	f9b3 3004 	ldrsh.w	r3, [r3, #4]
 800228e:	b29b      	uxth	r3, r3
 8002290:	4413      	add	r3, r2
 8002292:	b29b      	uxth	r3, r3
 8002294:	3b01      	subs	r3, #1
 8002296:	b29b      	uxth	r3, r3
 8002298:	b21a      	sxth	r2, r3
 800229a:	687b      	ldr	r3, [r7, #4]
 800229c:	801a      	strh	r2, [r3, #0]
 800229e:	687b      	ldr	r3, [r7, #4]
 80022a0:	4619      	mov	r1, r3
 80022a2:	68f8      	ldr	r0, [r7, #12]
 80022a4:	f7ff ff72 	bl	800218c <ucg_rotate_180_xy>
 80022a8:	e017      	b.n	80022da <ucg_dev_rotate180+0xe6>
 80022aa:	68fb      	ldr	r3, [r7, #12]
 80022ac:	f9b3 302e 	ldrsh.w	r3, [r3, #46]	; 0x2e
 80022b0:	b29b      	uxth	r3, r3
 80022b2:	3302      	adds	r3, #2
 80022b4:	b29b      	uxth	r3, r3
 80022b6:	b21a      	sxth	r2, r3
 80022b8:	68fb      	ldr	r3, [r7, #12]
 80022ba:	85da      	strh	r2, [r3, #46]	; 0x2e
 80022bc:	68fb      	ldr	r3, [r7, #12]
 80022be:	f9b3 302e 	ldrsh.w	r3, [r3, #46]	; 0x2e
 80022c2:	f003 0303 	and.w	r3, r3, #3
 80022c6:	b21a      	sxth	r2, r3
 80022c8:	68fb      	ldr	r3, [r7, #12]
 80022ca:	85da      	strh	r2, [r3, #46]	; 0x2e
 80022cc:	68fb      	ldr	r3, [r7, #12]
 80022ce:	3324      	adds	r3, #36	; 0x24
 80022d0:	4619      	mov	r1, r3
 80022d2:	68f8      	ldr	r0, [r7, #12]
 80022d4:	f7ff ff5a 	bl	800218c <ucg_rotate_180_xy>
 80022d8:	bf00      	nop
 80022da:	68fb      	ldr	r3, [r7, #12]
 80022dc:	691b      	ldr	r3, [r3, #16]
 80022de:	f9b7 100a 	ldrsh.w	r1, [r7, #10]
 80022e2:	687a      	ldr	r2, [r7, #4]
 80022e4:	68f8      	ldr	r0, [r7, #12]
 80022e6:	4798      	blx	r3
 80022e8:	4603      	mov	r3, r0
 80022ea:	4618      	mov	r0, r3
 80022ec:	3710      	adds	r7, #16
 80022ee:	46bd      	mov	sp, r7
 80022f0:	bd80      	pop	{r7, pc}
 80022f2:	bf00      	nop

080022f4 <ucg_SetRotate180>:
 80022f4:	b580      	push	{r7, lr}
 80022f6:	b082      	sub	sp, #8
 80022f8:	af00      	add	r7, sp, #0
 80022fa:	6078      	str	r0, [r7, #4]
 80022fc:	6878      	ldr	r0, [r7, #4]
 80022fe:	f7ff ff2c 	bl	800215a <ucg_UndoRotate>
 8002302:	687b      	ldr	r3, [r7, #4]
 8002304:	689a      	ldr	r2, [r3, #8]
 8002306:	687b      	ldr	r3, [r7, #4]
 8002308:	611a      	str	r2, [r3, #16]
 800230a:	687b      	ldr	r3, [r7, #4]
 800230c:	4a05      	ldr	r2, [pc, #20]	; (8002324 <ucg_SetRotate180+0x30>)
 800230e:	609a      	str	r2, [r3, #8]
 8002310:	6878      	ldr	r0, [r7, #4]
 8002312:	f7ff f802 	bl	800131a <ucg_GetDimension>
 8002316:	6878      	ldr	r0, [r7, #4]
 8002318:	f7fe ffe7 	bl	80012ea <ucg_SetMaxClipRange>
 800231c:	bf00      	nop
 800231e:	3708      	adds	r7, #8
 8002320:	46bd      	mov	sp, r7
 8002322:	bd80      	pop	{r7, pc}
 8002324:	080021f5 	.word	0x080021f5

08002328 <bufInit>:
 8002328:	b580      	push	{r7, lr}
 800232a:	b084      	sub	sp, #16
 800232c:	af00      	add	r7, sp, #0
 800232e:	60f8      	str	r0, [r7, #12]
 8002330:	60b9      	str	r1, [r7, #8]
 8002332:	4611      	mov	r1, r2
 8002334:	461a      	mov	r2, r3
 8002336:	460b      	mov	r3, r1
 8002338:	71fb      	strb	r3, [r7, #7]
 800233a:	4613      	mov	r3, r2
 800233c:	80bb      	strh	r3, [r7, #4]
 800233e:	68bb      	ldr	r3, [r7, #8]
 8002340:	88ba      	ldrh	r2, [r7, #4]
 8002342:	801a      	strh	r2, [r3, #0]
 8002344:	68bb      	ldr	r3, [r7, #8]
 8002346:	79fa      	ldrb	r2, [r7, #7]
 8002348:	711a      	strb	r2, [r3, #4]
 800234a:	68bb      	ldr	r3, [r7, #8]
 800234c:	68fa      	ldr	r2, [r7, #12]
 800234e:	60da      	str	r2, [r3, #12]
 8002350:	68b8      	ldr	r0, [r7, #8]
 8002352:	f000 f836 	bl	80023c2 <bufFlush>
 8002356:	bf00      	nop
 8002358:	3710      	adds	r7, #16
 800235a:	46bd      	mov	sp, r7
 800235c:	bd80      	pop	{r7, pc}

0800235e <bufNumItems>:
 800235e:	b480      	push	{r7}
 8002360:	b083      	sub	sp, #12
 8002362:	af00      	add	r7, sp, #0
 8002364:	6078      	str	r0, [r7, #4]
 8002366:	687b      	ldr	r3, [r7, #4]
 8002368:	885b      	ldrh	r3, [r3, #2]
 800236a:	4618      	mov	r0, r3
 800236c:	370c      	adds	r7, #12
 800236e:	46bd      	mov	sp, r7
 8002370:	f85d 7b04 	ldr.w	r7, [sp], #4
 8002374:	4770      	bx	lr

08002376 <bufIsFull>:
 8002376:	b480      	push	{r7}
 8002378:	b083      	sub	sp, #12
 800237a:	af00      	add	r7, sp, #0
 800237c:	6078      	str	r0, [r7, #4]
 800237e:	687b      	ldr	r3, [r7, #4]
 8002380:	885a      	ldrh	r2, [r3, #2]
 8002382:	687b      	ldr	r3, [r7, #4]
 8002384:	881b      	ldrh	r3, [r3, #0]
 8002386:	429a      	cmp	r2, r3
 8002388:	bf2c      	ite	cs
 800238a:	2301      	movcs	r3, #1
 800238c:	2300      	movcc	r3, #0
 800238e:	b2db      	uxtb	r3, r3
 8002390:	4618      	mov	r0, r3
 8002392:	370c      	adds	r7, #12
 8002394:	46bd      	mov	sp, r7
 8002396:	f85d 7b04 	ldr.w	r7, [sp], #4
 800239a:	4770      	bx	lr

0800239c <bufIsEmpty>:
 800239c:	b480      	push	{r7}
 800239e:	b083      	sub	sp, #12
 80023a0:	af00      	add	r7, sp, #0
 80023a2:	6078      	str	r0, [r7, #4]
 80023a4:	687b      	ldr	r3, [r7, #4]
 80023a6:	88da      	ldrh	r2, [r3, #6]
 80023a8:	687b      	ldr	r3, [r7, #4]
 80023aa:	891b      	ldrh	r3, [r3, #8]
 80023ac:	429a      	cmp	r2, r3
 80023ae:	bf0c      	ite	eq
 80023b0:	2301      	moveq	r3, #1
 80023b2:	2300      	movne	r3, #0
 80023b4:	b2db      	uxtb	r3, r3
 80023b6:	4618      	mov	r0, r3
 80023b8:	370c      	adds	r7, #12
 80023ba:	46bd      	mov	sp, r7
 80023bc:	f85d 7b04 	ldr.w	r7, [sp], #4
 80023c0:	4770      	bx	lr

080023c2 <bufFlush>:
 80023c2:	b580      	push	{r7, lr}
 80023c4:	b082      	sub	sp, #8
 80023c6:	af00      	add	r7, sp, #0
 80023c8:	6078      	str	r0, [r7, #4]
 80023ca:	687b      	ldr	r3, [r7, #4]
 80023cc:	2200      	movs	r2, #0
 80023ce:	80da      	strh	r2, [r3, #6]
 80023d0:	687b      	ldr	r3, [r7, #4]
 80023d2:	2200      	movs	r2, #0
 80023d4:	811a      	strh	r2, [r3, #8]
 80023d6:	687b      	ldr	r3, [r7, #4]
 80023d8:	2200      	movs	r2, #0
 80023da:	805a      	strh	r2, [r3, #2]
 80023dc:	687b      	ldr	r3, [r7, #4]
 80023de:	68d8      	ldr	r0, [r3, #12]
 80023e0:	687b      	ldr	r3, [r7, #4]
 80023e2:	881b      	ldrh	r3, [r3, #0]
 80023e4:	461a      	mov	r2, r3
 80023e6:	2100      	movs	r1, #0
 80023e8:	f000 f894 	bl	8002514 <memsetl>
 80023ec:	bf00      	nop
 80023ee:	3708      	adds	r7, #8
 80023f0:	46bd      	mov	sp, r7
 80023f2:	bd80      	pop	{r7, pc}

080023f4 <bufEnDat>:
 80023f4:	b580      	push	{r7, lr}
 80023f6:	b084      	sub	sp, #16
 80023f8:	af00      	add	r7, sp, #0
 80023fa:	6078      	str	r0, [r7, #4]
 80023fc:	6039      	str	r1, [r7, #0]
 80023fe:	b672      	cpsid	i
 8002400:	2300      	movs	r3, #0
 8002402:	73fb      	strb	r3, [r7, #15]
 8002404:	e021      	b.n	800244a <bufEnDat+0x56>
 8002406:	7bfb      	ldrb	r3, [r7, #15]
 8002408:	683a      	ldr	r2, [r7, #0]
 800240a:	441a      	add	r2, r3
 800240c:	687b      	ldr	r3, [r7, #4]
 800240e:	68db      	ldr	r3, [r3, #12]
 8002410:	6879      	ldr	r1, [r7, #4]
 8002412:	88c9      	ldrh	r1, [r1, #6]
 8002414:	440b      	add	r3, r1
 8002416:	7812      	ldrb	r2, [r2, #0]
 8002418:	701a      	strb	r2, [r3, #0]
 800241a:	687b      	ldr	r3, [r7, #4]
 800241c:	88db      	ldrh	r3, [r3, #6]
 800241e:	3301      	adds	r3, #1
 8002420:	b29b      	uxth	r3, r3
 8002422:	b21a      	sxth	r2, r3
 8002424:	687b      	ldr	r3, [r7, #4]
 8002426:	881b      	ldrh	r3, [r3, #0]
 8002428:	3b01      	subs	r3, #1
 800242a:	b29b      	uxth	r3, r3
 800242c:	b21b      	sxth	r3, r3
 800242e:	4013      	ands	r3, r2
 8002430:	b21b      	sxth	r3, r3
 8002432:	b29a      	uxth	r2, r3
 8002434:	687b      	ldr	r3, [r7, #4]
 8002436:	80da      	strh	r2, [r3, #6]
 8002438:	687b      	ldr	r3, [r7, #4]
 800243a:	885b      	ldrh	r3, [r3, #2]
 800243c:	3301      	adds	r3, #1
 800243e:	b29a      	uxth	r2, r3
 8002440:	687b      	ldr	r3, [r7, #4]
 8002442:	805a      	strh	r2, [r3, #2]
 8002444:	7bfb      	ldrb	r3, [r7, #15]
 8002446:	3301      	adds	r3, #1
 8002448:	73fb      	strb	r3, [r7, #15]
 800244a:	687b      	ldr	r3, [r7, #4]
 800244c:	791b      	ldrb	r3, [r3, #4]
 800244e:	7bfa      	ldrb	r2, [r7, #15]
 8002450:	429a      	cmp	r2, r3
 8002452:	d3d8      	bcc.n	8002406 <bufEnDat+0x12>
 8002454:	6878      	ldr	r0, [r7, #4]
 8002456:	f7ff ff8e 	bl	8002376 <bufIsFull>
 800245a:	4603      	mov	r3, r0
 800245c:	2b00      	cmp	r3, #0
 800245e:	d011      	beq.n	8002484 <bufEnDat+0x90>
 8002460:	687b      	ldr	r3, [r7, #4]
 8002462:	891a      	ldrh	r2, [r3, #8]
 8002464:	687b      	ldr	r3, [r7, #4]
 8002466:	791b      	ldrb	r3, [r3, #4]
 8002468:	b29b      	uxth	r3, r3
 800246a:	4413      	add	r3, r2
 800246c:	b29b      	uxth	r3, r3
 800246e:	b21a      	sxth	r2, r3
 8002470:	687b      	ldr	r3, [r7, #4]
 8002472:	881b      	ldrh	r3, [r3, #0]
 8002474:	3b01      	subs	r3, #1
 8002476:	b29b      	uxth	r3, r3
 8002478:	b21b      	sxth	r3, r3
 800247a:	4013      	ands	r3, r2
 800247c:	b21b      	sxth	r3, r3
 800247e:	b29a      	uxth	r2, r3
 8002480:	687b      	ldr	r3, [r7, #4]
 8002482:	811a      	strh	r2, [r3, #8]
 8002484:	b662      	cpsie	i
 8002486:	2300      	movs	r3, #0
 8002488:	4618      	mov	r0, r3
 800248a:	3710      	adds	r7, #16
 800248c:	46bd      	mov	sp, r7
 800248e:	bd80      	pop	{r7, pc}

08002490 <bufDeDat>:
 8002490:	b580      	push	{r7, lr}
 8002492:	b084      	sub	sp, #16
 8002494:	af00      	add	r7, sp, #0
 8002496:	6078      	str	r0, [r7, #4]
 8002498:	6039      	str	r1, [r7, #0]
 800249a:	b672      	cpsid	i
 800249c:	6878      	ldr	r0, [r7, #4]
 800249e:	f7ff ff7d 	bl	800239c <bufIsEmpty>
 80024a2:	4603      	mov	r3, r0
 80024a4:	2b00      	cmp	r3, #0
 80024a6:	d005      	beq.n	80024b4 <bufDeDat+0x24>
 80024a8:	687b      	ldr	r3, [r7, #4]
 80024aa:	2200      	movs	r2, #0
 80024ac:	805a      	strh	r2, [r3, #2]
 80024ae:	b662      	cpsie	i
 80024b0:	2302      	movs	r3, #2
 80024b2:	e02b      	b.n	800250c <bufDeDat+0x7c>
 80024b4:	2300      	movs	r3, #0
 80024b6:	73fb      	strb	r3, [r7, #15]
 80024b8:	e021      	b.n	80024fe <bufDeDat+0x6e>
 80024ba:	687b      	ldr	r3, [r7, #4]
 80024bc:	68db      	ldr	r3, [r3, #12]
 80024be:	687a      	ldr	r2, [r7, #4]
 80024c0:	8912      	ldrh	r2, [r2, #8]
 80024c2:	441a      	add	r2, r3
 80024c4:	7bfb      	ldrb	r3, [r7, #15]
 80024c6:	6839      	ldr	r1, [r7, #0]
 80024c8:	440b      	add	r3, r1
 80024ca:	7812      	ldrb	r2, [r2, #0]
 80024cc:	701a      	strb	r2, [r3, #0]
 80024ce:	687b      	ldr	r3, [r7, #4]
 80024d0:	891b      	ldrh	r3, [r3, #8]
 80024d2:	3301      	adds	r3, #1
 80024d4:	b29b      	uxth	r3, r3
 80024d6:	b21a      	sxth	r2, r3
 80024d8:	687b      	ldr	r3, [r7, #4]
 80024da:	881b      	ldrh	r3, [r3, #0]
 80024dc:	3b01      	subs	r3, #1
 80024de:	b29b      	uxth	r3, r3
 80024e0:	b21b      	sxth	r3, r3
 80024e2:	4013      	ands	r3, r2
 80024e4:	b21b      	sxth	r3, r3
 80024e6:	b29a      	uxth	r2, r3
 80024e8:	687b      	ldr	r3, [r7, #4]
 80024ea:	811a      	strh	r2, [r3, #8]
 80024ec:	687b      	ldr	r3, [r7, #4]
 80024ee:	885b      	ldrh	r3, [r3, #2]
 80024f0:	3b01      	subs	r3, #1
 80024f2:	b29a      	uxth	r2, r3
 80024f4:	687b      	ldr	r3, [r7, #4]
 80024f6:	805a      	strh	r2, [r3, #2]
 80024f8:	7bfb      	ldrb	r3, [r7, #15]
 80024fa:	3301      	adds	r3, #1
 80024fc:	73fb      	strb	r3, [r7, #15]
 80024fe:	687b      	ldr	r3, [r7, #4]
 8002500:	791b      	ldrb	r3, [r3, #4]
 8002502:	7bfa      	ldrb	r2, [r7, #15]
 8002504:	429a      	cmp	r2, r3
 8002506:	d3d8      	bcc.n	80024ba <bufDeDat+0x2a>
 8002508:	b662      	cpsie	i
 800250a:	2300      	movs	r3, #0
 800250c:	4618      	mov	r0, r3
 800250e:	3710      	adds	r7, #16
 8002510:	46bd      	mov	sp, r7
 8002512:	bd80      	pop	{r7, pc}

08002514 <memsetl>:
 8002514:	b480      	push	{r7}
 8002516:	b083      	sub	sp, #12
 8002518:	af00      	add	r7, sp, #0
 800251a:	6078      	str	r0, [r7, #4]
 800251c:	460b      	mov	r3, r1
 800251e:	70fb      	strb	r3, [r7, #3]
 8002520:	4613      	mov	r3, r2
 8002522:	803b      	strh	r3, [r7, #0]
 8002524:	e004      	b.n	8002530 <memsetl+0x1c>
 8002526:	687b      	ldr	r3, [r7, #4]
 8002528:	1c5a      	adds	r2, r3, #1
 800252a:	607a      	str	r2, [r7, #4]
 800252c:	78fa      	ldrb	r2, [r7, #3]
 800252e:	701a      	strb	r2, [r3, #0]
 8002530:	883b      	ldrh	r3, [r7, #0]
 8002532:	1e5a      	subs	r2, r3, #1
 8002534:	803a      	strh	r2, [r7, #0]
 8002536:	2b00      	cmp	r3, #0
 8002538:	d1f5      	bne.n	8002526 <memsetl+0x12>
 800253a:	bf00      	nop
 800253c:	370c      	adds	r7, #12
 800253e:	46bd      	mov	sp, r7
 8002540:	f85d 7b04 	ldr.w	r7, [sp], #4
 8002544:	4770      	bx	lr

08002546 <GPIO_Init>:
 8002546:	b480      	push	{r7}
 8002548:	b087      	sub	sp, #28
 800254a:	af00      	add	r7, sp, #0
 800254c:	6078      	str	r0, [r7, #4]
 800254e:	6039      	str	r1, [r7, #0]
 8002550:	2300      	movs	r3, #0
 8002552:	617b      	str	r3, [r7, #20]
 8002554:	2300      	movs	r3, #0
 8002556:	613b      	str	r3, [r7, #16]
 8002558:	2300      	movs	r3, #0
 800255a:	60fb      	str	r3, [r7, #12]
 800255c:	2300      	movs	r3, #0
 800255e:	617b      	str	r3, [r7, #20]
 8002560:	e076      	b.n	8002650 <GPIO_Init+0x10a>
 8002562:	2201      	movs	r2, #1
 8002564:	697b      	ldr	r3, [r7, #20]
 8002566:	fa02 f303 	lsl.w	r3, r2, r3
 800256a:	613b      	str	r3, [r7, #16]
 800256c:	683b      	ldr	r3, [r7, #0]
 800256e:	681b      	ldr	r3, [r3, #0]
 8002570:	693a      	ldr	r2, [r7, #16]
 8002572:	4013      	ands	r3, r2
 8002574:	60fb      	str	r3, [r7, #12]
 8002576:	68fa      	ldr	r2, [r7, #12]
 8002578:	693b      	ldr	r3, [r7, #16]
 800257a:	429a      	cmp	r2, r3
 800257c:	d165      	bne.n	800264a <GPIO_Init+0x104>
 800257e:	687b      	ldr	r3, [r7, #4]
 8002580:	681a      	ldr	r2, [r3, #0]
 8002582:	697b      	ldr	r3, [r7, #20]
 8002584:	005b      	lsls	r3, r3, #1
 8002586:	2103      	movs	r1, #3
 8002588:	fa01 f303 	lsl.w	r3, r1, r3
 800258c:	43db      	mvns	r3, r3
 800258e:	401a      	ands	r2, r3
 8002590:	687b      	ldr	r3, [r7, #4]
 8002592:	601a      	str	r2, [r3, #0]
 8002594:	687b      	ldr	r3, [r7, #4]
 8002596:	681a      	ldr	r2, [r3, #0]
 8002598:	683b      	ldr	r3, [r7, #0]
 800259a:	791b      	ldrb	r3, [r3, #4]
 800259c:	4619      	mov	r1, r3
 800259e:	697b      	ldr	r3, [r7, #20]
 80025a0:	005b      	lsls	r3, r3, #1
 80025a2:	fa01 f303 	lsl.w	r3, r1, r3
 80025a6:	431a      	orrs	r2, r3
 80025a8:	687b      	ldr	r3, [r7, #4]
 80025aa:	601a      	str	r2, [r3, #0]
 80025ac:	683b      	ldr	r3, [r7, #0]
 80025ae:	791b      	ldrb	r3, [r3, #4]
 80025b0:	2b01      	cmp	r3, #1
 80025b2:	d003      	beq.n	80025bc <GPIO_Init+0x76>
 80025b4:	683b      	ldr	r3, [r7, #0]
 80025b6:	791b      	ldrb	r3, [r3, #4]
 80025b8:	2b02      	cmp	r3, #2
 80025ba:	d12e      	bne.n	800261a <GPIO_Init+0xd4>
 80025bc:	687b      	ldr	r3, [r7, #4]
 80025be:	689a      	ldr	r2, [r3, #8]
 80025c0:	697b      	ldr	r3, [r7, #20]
 80025c2:	005b      	lsls	r3, r3, #1
 80025c4:	2103      	movs	r1, #3
 80025c6:	fa01 f303 	lsl.w	r3, r1, r3
 80025ca:	43db      	mvns	r3, r3
 80025cc:	401a      	ands	r2, r3
 80025ce:	687b      	ldr	r3, [r7, #4]
 80025d0:	609a      	str	r2, [r3, #8]
 80025d2:	687b      	ldr	r3, [r7, #4]
 80025d4:	689a      	ldr	r2, [r3, #8]
 80025d6:	683b      	ldr	r3, [r7, #0]
 80025d8:	795b      	ldrb	r3, [r3, #5]
 80025da:	4619      	mov	r1, r3
 80025dc:	697b      	ldr	r3, [r7, #20]
 80025de:	005b      	lsls	r3, r3, #1
 80025e0:	fa01 f303 	lsl.w	r3, r1, r3
 80025e4:	431a      	orrs	r2, r3
 80025e6:	687b      	ldr	r3, [r7, #4]
 80025e8:	609a      	str	r2, [r3, #8]
 80025ea:	687b      	ldr	r3, [r7, #4]
 80025ec:	685a      	ldr	r2, [r3, #4]
 80025ee:	697b      	ldr	r3, [r7, #20]
 80025f0:	b29b      	uxth	r3, r3
 80025f2:	4619      	mov	r1, r3
 80025f4:	2301      	movs	r3, #1
 80025f6:	408b      	lsls	r3, r1
 80025f8:	43db      	mvns	r3, r3
 80025fa:	401a      	ands	r2, r3
 80025fc:	687b      	ldr	r3, [r7, #4]
 80025fe:	605a      	str	r2, [r3, #4]
 8002600:	687b      	ldr	r3, [r7, #4]
 8002602:	685b      	ldr	r3, [r3, #4]
 8002604:	683a      	ldr	r2, [r7, #0]
 8002606:	7992      	ldrb	r2, [r2, #6]
 8002608:	4611      	mov	r1, r2
 800260a:	697a      	ldr	r2, [r7, #20]
 800260c:	b292      	uxth	r2, r2
 800260e:	fa01 f202 	lsl.w	r2, r1, r2
 8002612:	b292      	uxth	r2, r2
 8002614:	431a      	orrs	r2, r3
 8002616:	687b      	ldr	r3, [r7, #4]
 8002618:	605a      	str	r2, [r3, #4]
 800261a:	687b      	ldr	r3, [r7, #4]
 800261c:	68da      	ldr	r2, [r3, #12]
 800261e:	697b      	ldr	r3, [r7, #20]
 8002620:	b29b      	uxth	r3, r3
 8002622:	005b      	lsls	r3, r3, #1
 8002624:	2103      	movs	r1, #3
 8002626:	fa01 f303 	lsl.w	r3, r1, r3
 800262a:	43db      	mvns	r3, r3
 800262c:	401a      	ands	r2, r3
 800262e:	687b      	ldr	r3, [r7, #4]
 8002630:	60da      	str	r2, [r3, #12]
 8002632:	687b      	ldr	r3, [r7, #4]
 8002634:	68da      	ldr	r2, [r3, #12]
 8002636:	683b      	ldr	r3, [r7, #0]
 8002638:	79db      	ldrb	r3, [r3, #7]
 800263a:	4619      	mov	r1, r3
 800263c:	697b      	ldr	r3, [r7, #20]
 800263e:	005b      	lsls	r3, r3, #1
 8002640:	fa01 f303 	lsl.w	r3, r1, r3
 8002644:	431a      	orrs	r2, r3
 8002646:	687b      	ldr	r3, [r7, #4]
 8002648:	60da      	str	r2, [r3, #12]
 800264a:	697b      	ldr	r3, [r7, #20]
 800264c:	3301      	adds	r3, #1
 800264e:	617b      	str	r3, [r7, #20]
 8002650:	697b      	ldr	r3, [r7, #20]
 8002652:	2b0f      	cmp	r3, #15
 8002654:	d985      	bls.n	8002562 <GPIO_Init+0x1c>
 8002656:	bf00      	nop
 8002658:	371c      	adds	r7, #28
 800265a:	46bd      	mov	sp, r7
 800265c:	f85d 7b04 	ldr.w	r7, [sp], #4
 8002660:	4770      	bx	lr

08002662 <GPIO_WriteBit>:
 8002662:	b480      	push	{r7}
 8002664:	b083      	sub	sp, #12
 8002666:	af00      	add	r7, sp, #0
 8002668:	6078      	str	r0, [r7, #4]
 800266a:	460b      	mov	r3, r1
 800266c:	807b      	strh	r3, [r7, #2]
 800266e:	4613      	mov	r3, r2
 8002670:	707b      	strb	r3, [r7, #1]
 8002672:	787b      	ldrb	r3, [r7, #1]
 8002674:	2b00      	cmp	r3, #0
 8002676:	d003      	beq.n	8002680 <GPIO_WriteBit+0x1e>
 8002678:	687b      	ldr	r3, [r7, #4]
 800267a:	887a      	ldrh	r2, [r7, #2]
 800267c:	831a      	strh	r2, [r3, #24]
 800267e:	e002      	b.n	8002686 <GPIO_WriteBit+0x24>
 8002680:	687b      	ldr	r3, [r7, #4]
 8002682:	887a      	ldrh	r2, [r7, #2]
 8002684:	835a      	strh	r2, [r3, #26]
 8002686:	bf00      	nop
 8002688:	370c      	adds	r7, #12
 800268a:	46bd      	mov	sp, r7
 800268c:	f85d 7b04 	ldr.w	r7, [sp], #4
 8002690:	4770      	bx	lr
	...

08002694 <RCC_GetClocksFreq>:
 8002694:	b480      	push	{r7}
 8002696:	b089      	sub	sp, #36	; 0x24
 8002698:	af00      	add	r7, sp, #0
 800269a:	6078      	str	r0, [r7, #4]
 800269c:	2300      	movs	r3, #0
 800269e:	61bb      	str	r3, [r7, #24]
 80026a0:	2300      	movs	r3, #0
 80026a2:	617b      	str	r3, [r7, #20]
 80026a4:	2300      	movs	r3, #0
 80026a6:	61fb      	str	r3, [r7, #28]
 80026a8:	2302      	movs	r3, #2
 80026aa:	613b      	str	r3, [r7, #16]
 80026ac:	2300      	movs	r3, #0
 80026ae:	60fb      	str	r3, [r7, #12]
 80026b0:	2302      	movs	r3, #2
 80026b2:	60bb      	str	r3, [r7, #8]
 80026b4:	4b47      	ldr	r3, [pc, #284]	; (80027d4 <RCC_GetClocksFreq+0x140>)
 80026b6:	689b      	ldr	r3, [r3, #8]
 80026b8:	f003 030c 	and.w	r3, r3, #12
 80026bc:	61bb      	str	r3, [r7, #24]
 80026be:	69bb      	ldr	r3, [r7, #24]
 80026c0:	2b04      	cmp	r3, #4
 80026c2:	d007      	beq.n	80026d4 <RCC_GetClocksFreq+0x40>
 80026c4:	2b08      	cmp	r3, #8
 80026c6:	d009      	beq.n	80026dc <RCC_GetClocksFreq+0x48>
 80026c8:	2b00      	cmp	r3, #0
 80026ca:	d13d      	bne.n	8002748 <RCC_GetClocksFreq+0xb4>
 80026cc:	687b      	ldr	r3, [r7, #4]
 80026ce:	4a42      	ldr	r2, [pc, #264]	; (80027d8 <RCC_GetClocksFreq+0x144>)
 80026d0:	601a      	str	r2, [r3, #0]
 80026d2:	e03d      	b.n	8002750 <RCC_GetClocksFreq+0xbc>
 80026d4:	687b      	ldr	r3, [r7, #4]
 80026d6:	4a41      	ldr	r2, [pc, #260]	; (80027dc <RCC_GetClocksFreq+0x148>)
 80026d8:	601a      	str	r2, [r3, #0]
 80026da:	e039      	b.n	8002750 <RCC_GetClocksFreq+0xbc>
 80026dc:	4b3d      	ldr	r3, [pc, #244]	; (80027d4 <RCC_GetClocksFreq+0x140>)
 80026de:	685b      	ldr	r3, [r3, #4]
 80026e0:	0d9b      	lsrs	r3, r3, #22
 80026e2:	f003 0301 	and.w	r3, r3, #1
 80026e6:	60fb      	str	r3, [r7, #12]
 80026e8:	4b3a      	ldr	r3, [pc, #232]	; (80027d4 <RCC_GetClocksFreq+0x140>)
 80026ea:	685b      	ldr	r3, [r3, #4]
 80026ec:	f003 033f 	and.w	r3, r3, #63	; 0x3f
 80026f0:	60bb      	str	r3, [r7, #8]
 80026f2:	68fb      	ldr	r3, [r7, #12]
 80026f4:	2b00      	cmp	r3, #0
 80026f6:	d00c      	beq.n	8002712 <RCC_GetClocksFreq+0x7e>
 80026f8:	4a38      	ldr	r2, [pc, #224]	; (80027dc <RCC_GetClocksFreq+0x148>)
 80026fa:	68bb      	ldr	r3, [r7, #8]
 80026fc:	fbb2 f3f3 	udiv	r3, r2, r3
 8002700:	4a34      	ldr	r2, [pc, #208]	; (80027d4 <RCC_GetClocksFreq+0x140>)
 8002702:	6852      	ldr	r2, [r2, #4]
 8002704:	0992      	lsrs	r2, r2, #6
 8002706:	f3c2 0208 	ubfx	r2, r2, #0, #9
 800270a:	fb02 f303 	mul.w	r3, r2, r3
 800270e:	61fb      	str	r3, [r7, #28]
 8002710:	e00b      	b.n	800272a <RCC_GetClocksFreq+0x96>
 8002712:	4a31      	ldr	r2, [pc, #196]	; (80027d8 <RCC_GetClocksFreq+0x144>)
 8002714:	68bb      	ldr	r3, [r7, #8]
 8002716:	fbb2 f3f3 	udiv	r3, r2, r3
 800271a:	4a2e      	ldr	r2, [pc, #184]	; (80027d4 <RCC_GetClocksFreq+0x140>)
 800271c:	6852      	ldr	r2, [r2, #4]
 800271e:	0992      	lsrs	r2, r2, #6
 8002720:	f3c2 0208 	ubfx	r2, r2, #0, #9
 8002724:	fb02 f303 	mul.w	r3, r2, r3
 8002728:	61fb      	str	r3, [r7, #28]
 800272a:	4b2a      	ldr	r3, [pc, #168]	; (80027d4 <RCC_GetClocksFreq+0x140>)
 800272c:	685b      	ldr	r3, [r3, #4]
 800272e:	0c1b      	lsrs	r3, r3, #16
 8002730:	f003 0303 	and.w	r3, r3, #3
 8002734:	3301      	adds	r3, #1
 8002736:	005b      	lsls	r3, r3, #1
 8002738:	613b      	str	r3, [r7, #16]
 800273a:	69fa      	ldr	r2, [r7, #28]
 800273c:	693b      	ldr	r3, [r7, #16]
 800273e:	fbb2 f2f3 	udiv	r2, r2, r3
 8002742:	687b      	ldr	r3, [r7, #4]
 8002744:	601a      	str	r2, [r3, #0]
 8002746:	e003      	b.n	8002750 <RCC_GetClocksFreq+0xbc>
 8002748:	687b      	ldr	r3, [r7, #4]
 800274a:	4a23      	ldr	r2, [pc, #140]	; (80027d8 <RCC_GetClocksFreq+0x144>)
 800274c:	601a      	str	r2, [r3, #0]
 800274e:	bf00      	nop
 8002750:	4b20      	ldr	r3, [pc, #128]	; (80027d4 <RCC_GetClocksFreq+0x140>)
 8002752:	689b      	ldr	r3, [r3, #8]
 8002754:	f003 03f0 	and.w	r3, r3, #240	; 0xf0
 8002758:	61bb      	str	r3, [r7, #24]
 800275a:	69bb      	ldr	r3, [r7, #24]
 800275c:	091b      	lsrs	r3, r3, #4
 800275e:	61bb      	str	r3, [r7, #24]
 8002760:	4a1f      	ldr	r2, [pc, #124]	; (80027e0 <RCC_GetClocksFreq+0x14c>)
 8002762:	69bb      	ldr	r3, [r7, #24]
 8002764:	4413      	add	r3, r2
 8002766:	781b      	ldrb	r3, [r3, #0]
 8002768:	b2db      	uxtb	r3, r3
 800276a:	617b      	str	r3, [r7, #20]
 800276c:	687b      	ldr	r3, [r7, #4]
 800276e:	681a      	ldr	r2, [r3, #0]
 8002770:	697b      	ldr	r3, [r7, #20]
 8002772:	40da      	lsrs	r2, r3
 8002774:	687b      	ldr	r3, [r7, #4]
 8002776:	605a      	str	r2, [r3, #4]
 8002778:	4b16      	ldr	r3, [pc, #88]	; (80027d4 <RCC_GetClocksFreq+0x140>)
 800277a:	689b      	ldr	r3, [r3, #8]
 800277c:	f403 53e0 	and.w	r3, r3, #7168	; 0x1c00
 8002780:	61bb      	str	r3, [r7, #24]
 8002782:	69bb      	ldr	r3, [r7, #24]
 8002784:	0a9b      	lsrs	r3, r3, #10
 8002786:	61bb      	str	r3, [r7, #24]
 8002788:	4a15      	ldr	r2, [pc, #84]	; (80027e0 <RCC_GetClocksFreq+0x14c>)
 800278a:	69bb      	ldr	r3, [r7, #24]
 800278c:	4413      	add	r3, r2
 800278e:	781b      	ldrb	r3, [r3, #0]
 8002790:	b2db      	uxtb	r3, r3
 8002792:	617b      	str	r3, [r7, #20]
 8002794:	687b      	ldr	r3, [r7, #4]
 8002796:	685a      	ldr	r2, [r3, #4]
 8002798:	697b      	ldr	r3, [r7, #20]
 800279a:	40da      	lsrs	r2, r3
 800279c:	687b      	ldr	r3, [r7, #4]
 800279e:	609a      	str	r2, [r3, #8]
 80027a0:	4b0c      	ldr	r3, [pc, #48]	; (80027d4 <RCC_GetClocksFreq+0x140>)
 80027a2:	689b      	ldr	r3, [r3, #8]
 80027a4:	f403 4360 	and.w	r3, r3, #57344	; 0xe000
 80027a8:	61bb      	str	r3, [r7, #24]
 80027aa:	69bb      	ldr	r3, [r7, #24]
 80027ac:	0b5b      	lsrs	r3, r3, #13
 80027ae:	61bb      	str	r3, [r7, #24]
 80027b0:	4a0b      	ldr	r2, [pc, #44]	; (80027e0 <RCC_GetClocksFreq+0x14c>)
 80027b2:	69bb      	ldr	r3, [r7, #24]
 80027b4:	4413      	add	r3, r2
 80027b6:	781b      	ldrb	r3, [r3, #0]
 80027b8:	b2db      	uxtb	r3, r3
 80027ba:	617b      	str	r3, [r7, #20]
 80027bc:	687b      	ldr	r3, [r7, #4]
 80027be:	685a      	ldr	r2, [r3, #4]
 80027c0:	697b      	ldr	r3, [r7, #20]
 80027c2:	40da      	lsrs	r2, r3
 80027c4:	687b      	ldr	r3, [r7, #4]
 80027c6:	60da      	str	r2, [r3, #12]
 80027c8:	bf00      	nop
 80027ca:	3724      	adds	r7, #36	; 0x24
 80027cc:	46bd      	mov	sp, r7
 80027ce:	f85d 7b04 	ldr.w	r7, [sp], #4
 80027d2:	4770      	bx	lr
 80027d4:	40023800 	.word	0x40023800
 80027d8:	00f42400 	.word	0x00f42400
 80027dc:	017d7840 	.word	0x017d7840
 80027e0:	20000018 	.word	0x20000018

080027e4 <RCC_AHB1PeriphClockCmd>:
 80027e4:	b480      	push	{r7}
 80027e6:	b083      	sub	sp, #12
 80027e8:	af00      	add	r7, sp, #0
 80027ea:	6078      	str	r0, [r7, #4]
 80027ec:	460b      	mov	r3, r1
 80027ee:	70fb      	strb	r3, [r7, #3]
 80027f0:	78fb      	ldrb	r3, [r7, #3]
 80027f2:	2b00      	cmp	r3, #0
 80027f4:	d006      	beq.n	8002804 <RCC_AHB1PeriphClockCmd+0x20>
 80027f6:	4b0a      	ldr	r3, [pc, #40]	; (8002820 <RCC_AHB1PeriphClockCmd+0x3c>)
 80027f8:	6b1a      	ldr	r2, [r3, #48]	; 0x30
 80027fa:	4909      	ldr	r1, [pc, #36]	; (8002820 <RCC_AHB1PeriphClockCmd+0x3c>)
 80027fc:	687b      	ldr	r3, [r7, #4]
 80027fe:	4313      	orrs	r3, r2
 8002800:	630b      	str	r3, [r1, #48]	; 0x30
 8002802:	e006      	b.n	8002812 <RCC_AHB1PeriphClockCmd+0x2e>
 8002804:	4b06      	ldr	r3, [pc, #24]	; (8002820 <RCC_AHB1PeriphClockCmd+0x3c>)
 8002806:	6b1a      	ldr	r2, [r3, #48]	; 0x30
 8002808:	687b      	ldr	r3, [r7, #4]
 800280a:	43db      	mvns	r3, r3
 800280c:	4904      	ldr	r1, [pc, #16]	; (8002820 <RCC_AHB1PeriphClockCmd+0x3c>)
 800280e:	4013      	ands	r3, r2
 8002810:	630b      	str	r3, [r1, #48]	; 0x30
 8002812:	bf00      	nop
 8002814:	370c      	adds	r7, #12
 8002816:	46bd      	mov	sp, r7
 8002818:	f85d 7b04 	ldr.w	r7, [sp], #4
 800281c:	4770      	bx	lr
 800281e:	bf00      	nop
 8002820:	40023800 	.word	0x40023800

08002824 <ucg_clip_is_x_visible>:
 8002824:	b480      	push	{r7}
 8002826:	b085      	sub	sp, #20
 8002828:	af00      	add	r7, sp, #0
 800282a:	6078      	str	r0, [r7, #4]
 800282c:	687b      	ldr	r3, [r7, #4]
 800282e:	8c9b      	ldrh	r3, [r3, #36]	; 0x24
 8002830:	81fb      	strh	r3, [r7, #14]
 8002832:	89fa      	ldrh	r2, [r7, #14]
 8002834:	687b      	ldr	r3, [r7, #4]
 8002836:	f9b3 3070 	ldrsh.w	r3, [r3, #112]	; 0x70
 800283a:	b29b      	uxth	r3, r3
 800283c:	1ad3      	subs	r3, r2, r3
 800283e:	b29b      	uxth	r3, r3
 8002840:	81fb      	strh	r3, [r7, #14]
 8002842:	f9b7 300e 	ldrsh.w	r3, [r7, #14]
 8002846:	2b00      	cmp	r3, #0
 8002848:	da01      	bge.n	800284e <ucg_clip_is_x_visible+0x2a>
 800284a:	2300      	movs	r3, #0
 800284c:	e009      	b.n	8002862 <ucg_clip_is_x_visible+0x3e>
 800284e:	687b      	ldr	r3, [r7, #4]
 8002850:	f9b3 3074 	ldrsh.w	r3, [r3, #116]	; 0x74
 8002854:	f9b7 200e 	ldrsh.w	r2, [r7, #14]
 8002858:	429a      	cmp	r2, r3
 800285a:	db01      	blt.n	8002860 <ucg_clip_is_x_visible+0x3c>
 800285c:	2300      	movs	r3, #0
 800285e:	e000      	b.n	8002862 <ucg_clip_is_x_visible+0x3e>
 8002860:	2301      	movs	r3, #1
 8002862:	4618      	mov	r0, r3
 8002864:	3714      	adds	r7, #20
 8002866:	46bd      	mov	sp, r7
 8002868:	f85d 7b04 	ldr.w	r7, [sp], #4
 800286c:	4770      	bx	lr

0800286e <ucg_clip_is_y_visible>:
 800286e:	b480      	push	{r7}
 8002870:	b085      	sub	sp, #20
 8002872:	af00      	add	r7, sp, #0
 8002874:	6078      	str	r0, [r7, #4]
 8002876:	687b      	ldr	r3, [r7, #4]
 8002878:	8cdb      	ldrh	r3, [r3, #38]	; 0x26
 800287a:	81fb      	strh	r3, [r7, #14]
 800287c:	89fa      	ldrh	r2, [r7, #14]
 800287e:	687b      	ldr	r3, [r7, #4]
 8002880:	f9b3 3072 	ldrsh.w	r3, [r3, #114]	; 0x72
 8002884:	b29b      	uxth	r3, r3
 8002886:	1ad3      	subs	r3, r2, r3
 8002888:	b29b      	uxth	r3, r3
 800288a:	81fb      	strh	r3, [r7, #14]
 800288c:	f9b7 300e 	ldrsh.w	r3, [r7, #14]
 8002890:	2b00      	cmp	r3, #0
 8002892:	da01      	bge.n	8002898 <ucg_clip_is_y_visible+0x2a>
 8002894:	2300      	movs	r3, #0
 8002896:	e009      	b.n	80028ac <ucg_clip_is_y_visible+0x3e>
 8002898:	687b      	ldr	r3, [r7, #4]
 800289a:	f9b3 3076 	ldrsh.w	r3, [r3, #118]	; 0x76
 800289e:	f9b7 200e 	ldrsh.w	r2, [r7, #14]
 80028a2:	429a      	cmp	r2, r3
 80028a4:	db01      	blt.n	80028aa <ucg_clip_is_y_visible+0x3c>
 80028a6:	2300      	movs	r3, #0
 80028a8:	e000      	b.n	80028ac <ucg_clip_is_y_visible+0x3e>
 80028aa:	2301      	movs	r3, #1
 80028ac:	4618      	mov	r0, r3
 80028ae:	3714      	adds	r7, #20
 80028b0:	46bd      	mov	sp, r7
 80028b2:	f85d 7b04 	ldr.w	r7, [sp], #4
 80028b6:	4770      	bx	lr

080028b8 <ucg_clip_intersection>:
 80028b8:	b480      	push	{r7}
 80028ba:	b087      	sub	sp, #28
 80028bc:	af00      	add	r7, sp, #0
 80028be:	60f8      	str	r0, [r7, #12]
 80028c0:	60b9      	str	r1, [r7, #8]
 80028c2:	4611      	mov	r1, r2
 80028c4:	461a      	mov	r2, r3
 80028c6:	460b      	mov	r3, r1
 80028c8:	80fb      	strh	r3, [r7, #6]
 80028ca:	4613      	mov	r3, r2
 80028cc:	80bb      	strh	r3, [r7, #4]
 80028ce:	68fb      	ldr	r3, [r7, #12]
 80028d0:	881b      	ldrh	r3, [r3, #0]
 80028d2:	82fb      	strh	r3, [r7, #22]
 80028d4:	68bb      	ldr	r3, [r7, #8]
 80028d6:	881b      	ldrh	r3, [r3, #0]
 80028d8:	82bb      	strh	r3, [r7, #20]
 80028da:	f9b7 2016 	ldrsh.w	r2, [r7, #22]
 80028de:	f9b7 3004 	ldrsh.w	r3, [r7, #4]
 80028e2:	429a      	cmp	r2, r3
 80028e4:	db01      	blt.n	80028ea <ucg_clip_intersection+0x32>
 80028e6:	2300      	movs	r3, #0
 80028e8:	e01a      	b.n	8002920 <ucg_clip_intersection+0x68>
 80028ea:	f9b7 2014 	ldrsh.w	r2, [r7, #20]
 80028ee:	f9b7 3006 	ldrsh.w	r3, [r7, #6]
 80028f2:	429a      	cmp	r2, r3
 80028f4:	dc01      	bgt.n	80028fa <ucg_clip_intersection+0x42>
 80028f6:	2300      	movs	r3, #0
 80028f8:	e012      	b.n	8002920 <ucg_clip_intersection+0x68>
 80028fa:	f9b7 2016 	ldrsh.w	r2, [r7, #22]
 80028fe:	f9b7 3006 	ldrsh.w	r3, [r7, #6]
 8002902:	429a      	cmp	r2, r3
 8002904:	da02      	bge.n	800290c <ucg_clip_intersection+0x54>
 8002906:	68fb      	ldr	r3, [r7, #12]
 8002908:	88fa      	ldrh	r2, [r7, #6]
 800290a:	801a      	strh	r2, [r3, #0]
 800290c:	f9b7 2014 	ldrsh.w	r2, [r7, #20]
 8002910:	f9b7 3004 	ldrsh.w	r3, [r7, #4]
 8002914:	429a      	cmp	r2, r3
 8002916:	dd02      	ble.n	800291e <ucg_clip_intersection+0x66>
 8002918:	68bb      	ldr	r3, [r7, #8]
 800291a:	88ba      	ldrh	r2, [r7, #4]
 800291c:	801a      	strh	r2, [r3, #0]
 800291e:	2301      	movs	r3, #1
 8002920:	4618      	mov	r0, r3
 8002922:	371c      	adds	r7, #28
 8002924:	46bd      	mov	sp, r7
 8002926:	f85d 7b04 	ldr.w	r7, [sp], #4
 800292a:	4770      	bx	lr

0800292c <ucg_clip_is_pixel_visible>:
 800292c:	b580      	push	{r7, lr}
 800292e:	b082      	sub	sp, #8
 8002930:	af00      	add	r7, sp, #0
 8002932:	6078      	str	r0, [r7, #4]
 8002934:	6878      	ldr	r0, [r7, #4]
 8002936:	f7ff ff75 	bl	8002824 <ucg_clip_is_x_visible>
 800293a:	4603      	mov	r3, r0
 800293c:	2b00      	cmp	r3, #0
 800293e:	d101      	bne.n	8002944 <ucg_clip_is_pixel_visible+0x18>
 8002940:	2300      	movs	r3, #0
 8002942:	e008      	b.n	8002956 <ucg_clip_is_pixel_visible+0x2a>
 8002944:	6878      	ldr	r0, [r7, #4]
 8002946:	f7ff ff92 	bl	800286e <ucg_clip_is_y_visible>
 800294a:	4603      	mov	r3, r0
 800294c:	2b00      	cmp	r3, #0
 800294e:	d101      	bne.n	8002954 <ucg_clip_is_pixel_visible+0x28>
 8002950:	2300      	movs	r3, #0
 8002952:	e000      	b.n	8002956 <ucg_clip_is_pixel_visible+0x2a>
 8002954:	2301      	movs	r3, #1
 8002956:	4618      	mov	r0, r3
 8002958:	3708      	adds	r7, #8
 800295a:	46bd      	mov	sp, r7
 800295c:	bd80      	pop	{r7, pc}
	...

08002960 <ucg_clip_l90fx>:
 8002960:	b590      	push	{r4, r7, lr}
 8002962:	b085      	sub	sp, #20
 8002964:	af00      	add	r7, sp, #0
 8002966:	6078      	str	r0, [r7, #4]
 8002968:	687b      	ldr	r3, [r7, #4]
 800296a:	2200      	movs	r2, #0
 800296c:	861a      	strh	r2, [r3, #48]	; 0x30
 800296e:	687b      	ldr	r3, [r7, #4]
 8002970:	f9b3 302e 	ldrsh.w	r3, [r3, #46]	; 0x2e
 8002974:	2b03      	cmp	r3, #3
 8002976:	f200 816d 	bhi.w	8002c54 <ucg_clip_l90fx+0x2f4>
 800297a:	a201      	add	r2, pc, #4	; (adr r2, 8002980 <ucg_clip_l90fx+0x20>)
 800297c:	f852 f023 	ldr.w	pc, [r2, r3, lsl #2]
 8002980:	08002991 	.word	0x08002991
 8002984:	08002a37 	.word	0x08002a37
 8002988:	08002add 	.word	0x08002add
 800298c:	08002b99 	.word	0x08002b99
 8002990:	6878      	ldr	r0, [r7, #4]
 8002992:	f7ff ff6c 	bl	800286e <ucg_clip_is_y_visible>
 8002996:	4603      	mov	r3, r0
 8002998:	2b00      	cmp	r3, #0
 800299a:	d101      	bne.n	80029a0 <ucg_clip_l90fx+0x40>
 800299c:	2300      	movs	r3, #0
 800299e:	e15a      	b.n	8002c56 <ucg_clip_l90fx+0x2f6>
 80029a0:	687b      	ldr	r3, [r7, #4]
 80029a2:	f9b3 3024 	ldrsh.w	r3, [r3, #36]	; 0x24
 80029a6:	81fb      	strh	r3, [r7, #14]
 80029a8:	f9b7 300e 	ldrsh.w	r3, [r7, #14]
 80029ac:	81bb      	strh	r3, [r7, #12]
 80029ae:	687b      	ldr	r3, [r7, #4]
 80029b0:	f9b3 302c 	ldrsh.w	r3, [r3, #44]	; 0x2c
 80029b4:	b29a      	uxth	r2, r3
 80029b6:	f9b7 300c 	ldrsh.w	r3, [r7, #12]
 80029ba:	b29b      	uxth	r3, r3
 80029bc:	4413      	add	r3, r2
 80029be:	b29b      	uxth	r3, r3
 80029c0:	b21b      	sxth	r3, r3
 80029c2:	81bb      	strh	r3, [r7, #12]
 80029c4:	687b      	ldr	r3, [r7, #4]
 80029c6:	f9b3 4070 	ldrsh.w	r4, [r3, #112]	; 0x70
 80029ca:	687b      	ldr	r3, [r7, #4]
 80029cc:	f9b3 3070 	ldrsh.w	r3, [r3, #112]	; 0x70
 80029d0:	b29a      	uxth	r2, r3
 80029d2:	687b      	ldr	r3, [r7, #4]
 80029d4:	f9b3 3074 	ldrsh.w	r3, [r3, #116]	; 0x74
 80029d8:	b29b      	uxth	r3, r3
 80029da:	4413      	add	r3, r2
 80029dc:	b29b      	uxth	r3, r3
 80029de:	b21b      	sxth	r3, r3
 80029e0:	f107 010c 	add.w	r1, r7, #12
 80029e4:	f107 000e 	add.w	r0, r7, #14
 80029e8:	4622      	mov	r2, r4
 80029ea:	f7ff ff65 	bl	80028b8 <ucg_clip_intersection>
 80029ee:	4603      	mov	r3, r0
 80029f0:	2b00      	cmp	r3, #0
 80029f2:	d101      	bne.n	80029f8 <ucg_clip_l90fx+0x98>
 80029f4:	2300      	movs	r3, #0
 80029f6:	e12e      	b.n	8002c56 <ucg_clip_l90fx+0x2f6>
 80029f8:	f9b7 300e 	ldrsh.w	r3, [r7, #14]
 80029fc:	b29a      	uxth	r2, r3
 80029fe:	687b      	ldr	r3, [r7, #4]
 8002a00:	f9b3 3024 	ldrsh.w	r3, [r3, #36]	; 0x24
 8002a04:	b29b      	uxth	r3, r3
 8002a06:	1ad3      	subs	r3, r2, r3
 8002a08:	b29b      	uxth	r3, r3
 8002a0a:	b21a      	sxth	r2, r3
 8002a0c:	687b      	ldr	r3, [r7, #4]
 8002a0e:	861a      	strh	r2, [r3, #48]	; 0x30
 8002a10:	f9b7 200e 	ldrsh.w	r2, [r7, #14]
 8002a14:	687b      	ldr	r3, [r7, #4]
 8002a16:	849a      	strh	r2, [r3, #36]	; 0x24
 8002a18:	f9b7 300c 	ldrsh.w	r3, [r7, #12]
 8002a1c:	b29a      	uxth	r2, r3
 8002a1e:	f9b7 300e 	ldrsh.w	r3, [r7, #14]
 8002a22:	b29b      	uxth	r3, r3
 8002a24:	1ad3      	subs	r3, r2, r3
 8002a26:	b29b      	uxth	r3, r3
 8002a28:	b21b      	sxth	r3, r3
 8002a2a:	81bb      	strh	r3, [r7, #12]
 8002a2c:	f9b7 200c 	ldrsh.w	r2, [r7, #12]
 8002a30:	687b      	ldr	r3, [r7, #4]
 8002a32:	859a      	strh	r2, [r3, #44]	; 0x2c
 8002a34:	e10e      	b.n	8002c54 <ucg_clip_l90fx+0x2f4>
 8002a36:	6878      	ldr	r0, [r7, #4]
 8002a38:	f7ff fef4 	bl	8002824 <ucg_clip_is_x_visible>
 8002a3c:	4603      	mov	r3, r0
 8002a3e:	2b00      	cmp	r3, #0
 8002a40:	d101      	bne.n	8002a46 <ucg_clip_l90fx+0xe6>
 8002a42:	2300      	movs	r3, #0
 8002a44:	e107      	b.n	8002c56 <ucg_clip_l90fx+0x2f6>
 8002a46:	687b      	ldr	r3, [r7, #4]
 8002a48:	f9b3 3026 	ldrsh.w	r3, [r3, #38]	; 0x26
 8002a4c:	81fb      	strh	r3, [r7, #14]
 8002a4e:	f9b7 300e 	ldrsh.w	r3, [r7, #14]
 8002a52:	81bb      	strh	r3, [r7, #12]
 8002a54:	687b      	ldr	r3, [r7, #4]
 8002a56:	f9b3 302c 	ldrsh.w	r3, [r3, #44]	; 0x2c
 8002a5a:	b29a      	uxth	r2, r3
 8002a5c:	f9b7 300c 	ldrsh.w	r3, [r7, #12]
 8002a60:	b29b      	uxth	r3, r3
 8002a62:	4413      	add	r3, r2
 8002a64:	b29b      	uxth	r3, r3
 8002a66:	b21b      	sxth	r3, r3
 8002a68:	81bb      	strh	r3, [r7, #12]
 8002a6a:	687b      	ldr	r3, [r7, #4]
 8002a6c:	f9b3 4072 	ldrsh.w	r4, [r3, #114]	; 0x72
 8002a70:	687b      	ldr	r3, [r7, #4]
 8002a72:	f9b3 3072 	ldrsh.w	r3, [r3, #114]	; 0x72
 8002a76:	b29a      	uxth	r2, r3
 8002a78:	687b      	ldr	r3, [r7, #4]
 8002a7a:	f9b3 3076 	ldrsh.w	r3, [r3, #118]	; 0x76
 8002a7e:	b29b      	uxth	r3, r3
 8002a80:	4413      	add	r3, r2
 8002a82:	b29b      	uxth	r3, r3
 8002a84:	b21b      	sxth	r3, r3
 8002a86:	f107 010c 	add.w	r1, r7, #12
 8002a8a:	f107 000e 	add.w	r0, r7, #14
 8002a8e:	4622      	mov	r2, r4
 8002a90:	f7ff ff12 	bl	80028b8 <ucg_clip_intersection>
 8002a94:	4603      	mov	r3, r0
 8002a96:	2b00      	cmp	r3, #0
 8002a98:	d101      	bne.n	8002a9e <ucg_clip_l90fx+0x13e>
 8002a9a:	2300      	movs	r3, #0
 8002a9c:	e0db      	b.n	8002c56 <ucg_clip_l90fx+0x2f6>
 8002a9e:	f9b7 300e 	ldrsh.w	r3, [r7, #14]
 8002aa2:	b29a      	uxth	r2, r3
 8002aa4:	687b      	ldr	r3, [r7, #4]
 8002aa6:	f9b3 3026 	ldrsh.w	r3, [r3, #38]	; 0x26
 8002aaa:	b29b      	uxth	r3, r3
 8002aac:	1ad3      	subs	r3, r2, r3
 8002aae:	b29b      	uxth	r3, r3
 8002ab0:	b21a      	sxth	r2, r3
 8002ab2:	687b      	ldr	r3, [r7, #4]
 8002ab4:	861a      	strh	r2, [r3, #48]	; 0x30
 8002ab6:	f9b7 200e 	ldrsh.w	r2, [r7, #14]
 8002aba:	687b      	ldr	r3, [r7, #4]
 8002abc:	84da      	strh	r2, [r3, #38]	; 0x26
 8002abe:	f9b7 300c 	ldrsh.w	r3, [r7, #12]
 8002ac2:	b29a      	uxth	r2, r3
 8002ac4:	f9b7 300e 	ldrsh.w	r3, [r7, #14]
 8002ac8:	b29b      	uxth	r3, r3
 8002aca:	1ad3      	subs	r3, r2, r3
 8002acc:	b29b      	uxth	r3, r3
 8002ace:	b21b      	sxth	r3, r3
 8002ad0:	81bb      	strh	r3, [r7, #12]
 8002ad2:	f9b7 200c 	ldrsh.w	r2, [r7, #12]
 8002ad6:	687b      	ldr	r3, [r7, #4]
 8002ad8:	859a      	strh	r2, [r3, #44]	; 0x2c
 8002ada:	e0bb      	b.n	8002c54 <ucg_clip_l90fx+0x2f4>
 8002adc:	6878      	ldr	r0, [r7, #4]
 8002ade:	f7ff fec6 	bl	800286e <ucg_clip_is_y_visible>
 8002ae2:	4603      	mov	r3, r0
 8002ae4:	2b00      	cmp	r3, #0
 8002ae6:	d101      	bne.n	8002aec <ucg_clip_l90fx+0x18c>
 8002ae8:	2300      	movs	r3, #0
 8002aea:	e0b4      	b.n	8002c56 <ucg_clip_l90fx+0x2f6>
 8002aec:	687b      	ldr	r3, [r7, #4]
 8002aee:	f9b3 3024 	ldrsh.w	r3, [r3, #36]	; 0x24
 8002af2:	81bb      	strh	r3, [r7, #12]
 8002af4:	f9b7 300c 	ldrsh.w	r3, [r7, #12]
 8002af8:	b29b      	uxth	r3, r3
 8002afa:	3301      	adds	r3, #1
 8002afc:	b29b      	uxth	r3, r3
 8002afe:	b21b      	sxth	r3, r3
 8002b00:	81bb      	strh	r3, [r7, #12]
 8002b02:	f9b7 300c 	ldrsh.w	r3, [r7, #12]
 8002b06:	81fb      	strh	r3, [r7, #14]
 8002b08:	f9b7 300e 	ldrsh.w	r3, [r7, #14]
 8002b0c:	b29a      	uxth	r2, r3
 8002b0e:	687b      	ldr	r3, [r7, #4]
 8002b10:	f9b3 302c 	ldrsh.w	r3, [r3, #44]	; 0x2c
 8002b14:	b29b      	uxth	r3, r3
 8002b16:	1ad3      	subs	r3, r2, r3
 8002b18:	b29b      	uxth	r3, r3
 8002b1a:	b21b      	sxth	r3, r3
 8002b1c:	81fb      	strh	r3, [r7, #14]
 8002b1e:	687b      	ldr	r3, [r7, #4]
 8002b20:	f9b3 4070 	ldrsh.w	r4, [r3, #112]	; 0x70
 8002b24:	687b      	ldr	r3, [r7, #4]
 8002b26:	f9b3 3070 	ldrsh.w	r3, [r3, #112]	; 0x70
 8002b2a:	b29a      	uxth	r2, r3
 8002b2c:	687b      	ldr	r3, [r7, #4]
 8002b2e:	f9b3 3074 	ldrsh.w	r3, [r3, #116]	; 0x74
 8002b32:	b29b      	uxth	r3, r3
 8002b34:	4413      	add	r3, r2
 8002b36:	b29b      	uxth	r3, r3
 8002b38:	b21b      	sxth	r3, r3
 8002b3a:	f107 010c 	add.w	r1, r7, #12
 8002b3e:	f107 000e 	add.w	r0, r7, #14
 8002b42:	4622      	mov	r2, r4
 8002b44:	f7ff feb8 	bl	80028b8 <ucg_clip_intersection>
 8002b48:	4603      	mov	r3, r0
 8002b4a:	2b00      	cmp	r3, #0
 8002b4c:	d101      	bne.n	8002b52 <ucg_clip_l90fx+0x1f2>
 8002b4e:	2300      	movs	r3, #0
 8002b50:	e081      	b.n	8002c56 <ucg_clip_l90fx+0x2f6>
 8002b52:	f9b7 300c 	ldrsh.w	r3, [r7, #12]
 8002b56:	b29a      	uxth	r2, r3
 8002b58:	f9b7 300e 	ldrsh.w	r3, [r7, #14]
 8002b5c:	b29b      	uxth	r3, r3
 8002b5e:	1ad3      	subs	r3, r2, r3
 8002b60:	b29b      	uxth	r3, r3
 8002b62:	b21a      	sxth	r2, r3
 8002b64:	687b      	ldr	r3, [r7, #4]
 8002b66:	859a      	strh	r2, [r3, #44]	; 0x2c
 8002b68:	f9b7 300c 	ldrsh.w	r3, [r7, #12]
 8002b6c:	b29b      	uxth	r3, r3
 8002b6e:	3b01      	subs	r3, #1
 8002b70:	b29b      	uxth	r3, r3
 8002b72:	b21b      	sxth	r3, r3
 8002b74:	81bb      	strh	r3, [r7, #12]
 8002b76:	687b      	ldr	r3, [r7, #4]
 8002b78:	f9b3 3024 	ldrsh.w	r3, [r3, #36]	; 0x24
 8002b7c:	b29a      	uxth	r2, r3
 8002b7e:	f9b7 300c 	ldrsh.w	r3, [r7, #12]
 8002b82:	b29b      	uxth	r3, r3
 8002b84:	1ad3      	subs	r3, r2, r3
 8002b86:	b29b      	uxth	r3, r3
 8002b88:	b21a      	sxth	r2, r3
 8002b8a:	687b      	ldr	r3, [r7, #4]
 8002b8c:	861a      	strh	r2, [r3, #48]	; 0x30
 8002b8e:	f9b7 200c 	ldrsh.w	r2, [r7, #12]
 8002b92:	687b      	ldr	r3, [r7, #4]
 8002b94:	849a      	strh	r2, [r3, #36]	; 0x24
 8002b96:	e05d      	b.n	8002c54 <ucg_clip_l90fx+0x2f4>
 8002b98:	6878      	ldr	r0, [r7, #4]
 8002b9a:	f7ff fe43 	bl	8002824 <ucg_clip_is_x_visible>
 8002b9e:	4603      	mov	r3, r0
 8002ba0:	2b00      	cmp	r3, #0
 8002ba2:	d101      	bne.n	8002ba8 <ucg_clip_l90fx+0x248>
 8002ba4:	2300      	movs	r3, #0
 8002ba6:	e056      	b.n	8002c56 <ucg_clip_l90fx+0x2f6>
 8002ba8:	687b      	ldr	r3, [r7, #4]
 8002baa:	f9b3 3026 	ldrsh.w	r3, [r3, #38]	; 0x26
 8002bae:	81bb      	strh	r3, [r7, #12]
 8002bb0:	f9b7 300c 	ldrsh.w	r3, [r7, #12]
 8002bb4:	b29b      	uxth	r3, r3
 8002bb6:	3301      	adds	r3, #1
 8002bb8:	b29b      	uxth	r3, r3
 8002bba:	b21b      	sxth	r3, r3
 8002bbc:	81bb      	strh	r3, [r7, #12]
 8002bbe:	f9b7 300c 	ldrsh.w	r3, [r7, #12]
 8002bc2:	81fb      	strh	r3, [r7, #14]
 8002bc4:	f9b7 300e 	ldrsh.w	r3, [r7, #14]
 8002bc8:	b29a      	uxth	r2, r3
 8002bca:	687b      	ldr	r3, [r7, #4]
 8002bcc:	f9b3 302c 	ldrsh.w	r3, [r3, #44]	; 0x2c
 8002bd0:	b29b      	uxth	r3, r3
 8002bd2:	1ad3      	subs	r3, r2, r3
 8002bd4:	b29b      	uxth	r3, r3
 8002bd6:	b21b      	sxth	r3, r3
 8002bd8:	81fb      	strh	r3, [r7, #14]
 8002bda:	687b      	ldr	r3, [r7, #4]
 8002bdc:	f9b3 4072 	ldrsh.w	r4, [r3, #114]	; 0x72
 8002be0:	687b      	ldr	r3, [r7, #4]
 8002be2:	f9b3 3072 	ldrsh.w	r3, [r3, #114]	; 0x72
 8002be6:	b29a      	uxth	r2, r3
 8002be8:	687b      	ldr	r3, [r7, #4]
 8002bea:	f9b3 3076 	ldrsh.w	r3, [r3, #118]	; 0x76
 8002bee:	b29b      	uxth	r3, r3
 8002bf0:	4413      	add	r3, r2
 8002bf2:	b29b      	uxth	r3, r3
 8002bf4:	b21b      	sxth	r3, r3
 8002bf6:	f107 010c 	add.w	r1, r7, #12
 8002bfa:	f107 000e 	add.w	r0, r7, #14
 8002bfe:	4622      	mov	r2, r4
 8002c00:	f7ff fe5a 	bl	80028b8 <ucg_clip_intersection>
 8002c04:	4603      	mov	r3, r0
 8002c06:	2b00      	cmp	r3, #0
 8002c08:	d101      	bne.n	8002c0e <ucg_clip_l90fx+0x2ae>
 8002c0a:	2300      	movs	r3, #0
 8002c0c:	e023      	b.n	8002c56 <ucg_clip_l90fx+0x2f6>
 8002c0e:	f9b7 300c 	ldrsh.w	r3, [r7, #12]
 8002c12:	b29a      	uxth	r2, r3
 8002c14:	f9b7 300e 	ldrsh.w	r3, [r7, #14]
 8002c18:	b29b      	uxth	r3, r3
 8002c1a:	1ad3      	subs	r3, r2, r3
 8002c1c:	b29b      	uxth	r3, r3
 8002c1e:	b21a      	sxth	r2, r3
 8002c20:	687b      	ldr	r3, [r7, #4]
 8002c22:	859a      	strh	r2, [r3, #44]	; 0x2c
 8002c24:	f9b7 300c 	ldrsh.w	r3, [r7, #12]
 8002c28:	b29b      	uxth	r3, r3
 8002c2a:	3b01      	subs	r3, #1
 8002c2c:	b29b      	uxth	r3, r3
 8002c2e:	b21b      	sxth	r3, r3
 8002c30:	81bb      	strh	r3, [r7, #12]
 8002c32:	687b      	ldr	r3, [r7, #4]
 8002c34:	f9b3 3026 	ldrsh.w	r3, [r3, #38]	; 0x26
 8002c38:	b29a      	uxth	r2, r3
 8002c3a:	f9b7 300c 	ldrsh.w	r3, [r7, #12]
 8002c3e:	b29b      	uxth	r3, r3
 8002c40:	1ad3      	subs	r3, r2, r3
 8002c42:	b29b      	uxth	r3, r3
 8002c44:	b21a      	sxth	r2, r3
 8002c46:	687b      	ldr	r3, [r7, #4]
 8002c48:	861a      	strh	r2, [r3, #48]	; 0x30
 8002c4a:	f9b7 200c 	ldrsh.w	r2, [r7, #12]
 8002c4e:	687b      	ldr	r3, [r7, #4]
 8002c50:	84da      	strh	r2, [r3, #38]	; 0x26
 8002c52:	bf00      	nop
 8002c54:	2301      	movs	r3, #1
 8002c56:	4618      	mov	r0, r3
 8002c58:	3714      	adds	r7, #20
 8002c5a:	46bd      	mov	sp, r7
 8002c5c:	bd90      	pop	{r4, r7, pc}
 8002c5e:	bf00      	nop

08002c60 <ucg_clip_l90se>:
 8002c60:	b580      	push	{r7, lr}
 8002c62:	b084      	sub	sp, #16
 8002c64:	af00      	add	r7, sp, #0
 8002c66:	6078      	str	r0, [r7, #4]
 8002c68:	6878      	ldr	r0, [r7, #4]
 8002c6a:	f7ff fe79 	bl	8002960 <ucg_clip_l90fx>
 8002c6e:	4603      	mov	r3, r0
 8002c70:	2b00      	cmp	r3, #0
 8002c72:	d101      	bne.n	8002c78 <ucg_clip_l90se+0x18>
 8002c74:	2300      	movs	r3, #0
 8002c76:	e019      	b.n	8002cac <ucg_clip_l90se+0x4c>
 8002c78:	2300      	movs	r3, #0
 8002c7a:	73fb      	strb	r3, [r7, #15]
 8002c7c:	e012      	b.n	8002ca4 <ucg_clip_l90se+0x44>
 8002c7e:	687b      	ldr	r3, [r7, #4]
 8002c80:	f103 0146 	add.w	r1, r3, #70	; 0x46
 8002c84:	7bfa      	ldrb	r2, [r7, #15]
 8002c86:	4613      	mov	r3, r2
 8002c88:	00db      	lsls	r3, r3, #3
 8002c8a:	1a9b      	subs	r3, r3, r2
 8002c8c:	005b      	lsls	r3, r3, #1
 8002c8e:	18ca      	adds	r2, r1, r3
 8002c90:	687b      	ldr	r3, [r7, #4]
 8002c92:	f9b3 3030 	ldrsh.w	r3, [r3, #48]	; 0x30
 8002c96:	4619      	mov	r1, r3
 8002c98:	4610      	mov	r0, r2
 8002c9a:	f7fe f8a4 	bl	8000de6 <ucg_ccs_seek>
 8002c9e:	7bfb      	ldrb	r3, [r7, #15]
 8002ca0:	3301      	adds	r3, #1
 8002ca2:	73fb      	strb	r3, [r7, #15]
 8002ca4:	7bfb      	ldrb	r3, [r7, #15]
 8002ca6:	2b02      	cmp	r3, #2
 8002ca8:	d9e9      	bls.n	8002c7e <ucg_clip_l90se+0x1e>
 8002caa:	2301      	movs	r3, #1
 8002cac:	4618      	mov	r0, r3
 8002cae:	3710      	adds	r7, #16
 8002cb0:	46bd      	mov	sp, r7
 8002cb2:	bd80      	pop	{r7, pc}

08002cb4 <ucg_com_PowerDown>:
 8002cb4:	b590      	push	{r4, r7, lr}
 8002cb6:	b083      	sub	sp, #12
 8002cb8:	af00      	add	r7, sp, #0
 8002cba:	6078      	str	r0, [r7, #4]
 8002cbc:	687b      	ldr	r3, [r7, #4]
 8002cbe:	f893 30af 	ldrb.w	r3, [r3, #175]	; 0xaf
 8002cc2:	f003 0308 	and.w	r3, r3, #8
 8002cc6:	2b00      	cmp	r3, #0
 8002cc8:	d006      	beq.n	8002cd8 <ucg_com_PowerDown+0x24>
 8002cca:	687b      	ldr	r3, [r7, #4]
 8002ccc:	69dc      	ldr	r4, [r3, #28]
 8002cce:	2300      	movs	r3, #0
 8002cd0:	2200      	movs	r2, #0
 8002cd2:	210b      	movs	r1, #11
 8002cd4:	6878      	ldr	r0, [r7, #4]
 8002cd6:	47a0      	blx	r4
 8002cd8:	687b      	ldr	r3, [r7, #4]
 8002cda:	f893 30af 	ldrb.w	r3, [r3, #175]	; 0xaf
 8002cde:	f023 0308 	bic.w	r3, r3, #8
 8002ce2:	b2da      	uxtb	r2, r3
 8002ce4:	687b      	ldr	r3, [r7, #4]
 8002ce6:	f883 20af 	strb.w	r2, [r3, #175]	; 0xaf
 8002cea:	bf00      	nop
 8002cec:	370c      	adds	r7, #12
 8002cee:	46bd      	mov	sp, r7
 8002cf0:	bd90      	pop	{r4, r7, pc}

08002cf2 <ucg_com_PowerUp>:
 8002cf2:	b590      	push	{r4, r7, lr}
 8002cf4:	b085      	sub	sp, #20
 8002cf6:	af00      	add	r7, sp, #0
 8002cf8:	6078      	str	r0, [r7, #4]
 8002cfa:	460b      	mov	r3, r1
 8002cfc:	807b      	strh	r3, [r7, #2]
 8002cfe:	4613      	mov	r3, r2
 8002d00:	803b      	strh	r3, [r7, #0]
 8002d02:	887b      	ldrh	r3, [r7, #2]
 8002d04:	813b      	strh	r3, [r7, #8]
 8002d06:	883b      	ldrh	r3, [r7, #0]
 8002d08:	817b      	strh	r3, [r7, #10]
 8002d0a:	6878      	ldr	r0, [r7, #4]
 8002d0c:	f7ff ffd2 	bl	8002cb4 <ucg_com_PowerDown>
 8002d10:	687b      	ldr	r3, [r7, #4]
 8002d12:	2200      	movs	r2, #0
 8002d14:	f883 20ae 	strb.w	r2, [r3, #174]	; 0xae
 8002d18:	687b      	ldr	r3, [r7, #4]
 8002d1a:	69dc      	ldr	r4, [r3, #28]
 8002d1c:	f107 0308 	add.w	r3, r7, #8
 8002d20:	2200      	movs	r2, #0
 8002d22:	210a      	movs	r1, #10
 8002d24:	6878      	ldr	r0, [r7, #4]
 8002d26:	47a0      	blx	r4
 8002d28:	4603      	mov	r3, r0
 8002d2a:	81fb      	strh	r3, [r7, #14]
 8002d2c:	f9b7 300e 	ldrsh.w	r3, [r7, #14]
 8002d30:	2b00      	cmp	r3, #0
 8002d32:	d008      	beq.n	8002d46 <ucg_com_PowerUp+0x54>
 8002d34:	687b      	ldr	r3, [r7, #4]
 8002d36:	f893 30af 	ldrb.w	r3, [r3, #175]	; 0xaf
 8002d3a:	f043 0308 	orr.w	r3, r3, #8
 8002d3e:	b2da      	uxtb	r2, r3
 8002d40:	687b      	ldr	r3, [r7, #4]
 8002d42:	f883 20af 	strb.w	r2, [r3, #175]	; 0xaf
 8002d46:	f9b7 300e 	ldrsh.w	r3, [r7, #14]
 8002d4a:	4618      	mov	r0, r3
 8002d4c:	3714      	adds	r7, #20
 8002d4e:	46bd      	mov	sp, r7
 8002d50:	bd90      	pop	{r4, r7, pc}

08002d52 <ucg_com_SetLineStatus>:
 8002d52:	b590      	push	{r4, r7, lr}
 8002d54:	b083      	sub	sp, #12
 8002d56:	af00      	add	r7, sp, #0
 8002d58:	6078      	str	r0, [r7, #4]
 8002d5a:	4608      	mov	r0, r1
 8002d5c:	4611      	mov	r1, r2
 8002d5e:	461a      	mov	r2, r3
 8002d60:	4603      	mov	r3, r0
 8002d62:	70fb      	strb	r3, [r7, #3]
 8002d64:	460b      	mov	r3, r1
 8002d66:	70bb      	strb	r3, [r7, #2]
 8002d68:	4613      	mov	r3, r2
 8002d6a:	707b      	strb	r3, [r7, #1]
 8002d6c:	78fb      	ldrb	r3, [r7, #3]
 8002d6e:	2b00      	cmp	r3, #0
 8002d70:	d131      	bne.n	8002dd6 <ucg_com_SetLineStatus+0x84>
 8002d72:	687b      	ldr	r3, [r7, #4]
 8002d74:	f893 20ae 	ldrb.w	r2, [r3, #174]	; 0xae
 8002d78:	78bb      	ldrb	r3, [r7, #2]
 8002d7a:	4013      	ands	r3, r2
 8002d7c:	b2db      	uxtb	r3, r3
 8002d7e:	2b00      	cmp	r3, #0
 8002d80:	d008      	beq.n	8002d94 <ucg_com_SetLineStatus+0x42>
 8002d82:	687b      	ldr	r3, [r7, #4]
 8002d84:	f893 20af 	ldrb.w	r2, [r3, #175]	; 0xaf
 8002d88:	78bb      	ldrb	r3, [r7, #2]
 8002d8a:	4013      	ands	r3, r2
 8002d8c:	b2db      	uxtb	r3, r3
 8002d8e:	78ba      	ldrb	r2, [r7, #2]
 8002d90:	429a      	cmp	r2, r3
 8002d92:	d14b      	bne.n	8002e2c <ucg_com_SetLineStatus+0xda>
 8002d94:	687b      	ldr	r3, [r7, #4]
 8002d96:	69dc      	ldr	r4, [r3, #28]
 8002d98:	787b      	ldrb	r3, [r7, #1]
 8002d9a:	b219      	sxth	r1, r3
 8002d9c:	78fb      	ldrb	r3, [r7, #3]
 8002d9e:	b29a      	uxth	r2, r3
 8002da0:	2300      	movs	r3, #0
 8002da2:	6878      	ldr	r0, [r7, #4]
 8002da4:	47a0      	blx	r4
 8002da6:	687b      	ldr	r3, [r7, #4]
 8002da8:	f893 30af 	ldrb.w	r3, [r3, #175]	; 0xaf
 8002dac:	b25a      	sxtb	r2, r3
 8002dae:	f997 3002 	ldrsb.w	r3, [r7, #2]
 8002db2:	43db      	mvns	r3, r3
 8002db4:	b25b      	sxtb	r3, r3
 8002db6:	4013      	ands	r3, r2
 8002db8:	b25b      	sxtb	r3, r3
 8002dba:	b2da      	uxtb	r2, r3
 8002dbc:	687b      	ldr	r3, [r7, #4]
 8002dbe:	f883 20af 	strb.w	r2, [r3, #175]	; 0xaf
 8002dc2:	687b      	ldr	r3, [r7, #4]
 8002dc4:	f893 20ae 	ldrb.w	r2, [r3, #174]	; 0xae
 8002dc8:	78bb      	ldrb	r3, [r7, #2]
 8002dca:	4313      	orrs	r3, r2
 8002dcc:	b2da      	uxtb	r2, r3
 8002dce:	687b      	ldr	r3, [r7, #4]
 8002dd0:	f883 20ae 	strb.w	r2, [r3, #174]	; 0xae
 8002dd4:	e02a      	b.n	8002e2c <ucg_com_SetLineStatus+0xda>
 8002dd6:	687b      	ldr	r3, [r7, #4]
 8002dd8:	f893 20ae 	ldrb.w	r2, [r3, #174]	; 0xae
 8002ddc:	78bb      	ldrb	r3, [r7, #2]
 8002dde:	4013      	ands	r3, r2
 8002de0:	b2db      	uxtb	r3, r3
 8002de2:	2b00      	cmp	r3, #0
 8002de4:	d007      	beq.n	8002df6 <ucg_com_SetLineStatus+0xa4>
 8002de6:	687b      	ldr	r3, [r7, #4]
 8002de8:	f893 20af 	ldrb.w	r2, [r3, #175]	; 0xaf
 8002dec:	78bb      	ldrb	r3, [r7, #2]
 8002dee:	4013      	ands	r3, r2
 8002df0:	b2db      	uxtb	r3, r3
 8002df2:	2b00      	cmp	r3, #0
 8002df4:	d11a      	bne.n	8002e2c <ucg_com_SetLineStatus+0xda>
 8002df6:	687b      	ldr	r3, [r7, #4]
 8002df8:	69dc      	ldr	r4, [r3, #28]
 8002dfa:	787b      	ldrb	r3, [r7, #1]
 8002dfc:	b219      	sxth	r1, r3
 8002dfe:	78fb      	ldrb	r3, [r7, #3]
 8002e00:	b29a      	uxth	r2, r3
 8002e02:	2300      	movs	r3, #0
 8002e04:	6878      	ldr	r0, [r7, #4]
 8002e06:	47a0      	blx	r4
 8002e08:	687b      	ldr	r3, [r7, #4]
 8002e0a:	f893 20af 	ldrb.w	r2, [r3, #175]	; 0xaf
 8002e0e:	78bb      	ldrb	r3, [r7, #2]
 8002e10:	4313      	orrs	r3, r2
 8002e12:	b2da      	uxtb	r2, r3
 8002e14:	687b      	ldr	r3, [r7, #4]
 8002e16:	f883 20af 	strb.w	r2, [r3, #175]	; 0xaf
 8002e1a:	687b      	ldr	r3, [r7, #4]
 8002e1c:	f893 20ae 	ldrb.w	r2, [r3, #174]	; 0xae
 8002e20:	78bb      	ldrb	r3, [r7, #2]
 8002e22:	4313      	orrs	r3, r2
 8002e24:	b2da      	uxtb	r2, r3
 8002e26:	687b      	ldr	r3, [r7, #4]
 8002e28:	f883 20ae 	strb.w	r2, [r3, #174]	; 0xae
 8002e2c:	bf00      	nop
 8002e2e:	370c      	adds	r7, #12
 8002e30:	46bd      	mov	sp, r7
 8002e32:	bd90      	pop	{r4, r7, pc}

08002e34 <ucg_com_SetResetLineStatus>:
 8002e34:	b580      	push	{r7, lr}
 8002e36:	b082      	sub	sp, #8
 8002e38:	af00      	add	r7, sp, #0
 8002e3a:	6078      	str	r0, [r7, #4]
 8002e3c:	460b      	mov	r3, r1
 8002e3e:	70fb      	strb	r3, [r7, #3]
 8002e40:	78f9      	ldrb	r1, [r7, #3]
 8002e42:	230d      	movs	r3, #13
 8002e44:	2204      	movs	r2, #4
 8002e46:	6878      	ldr	r0, [r7, #4]
 8002e48:	f7ff ff83 	bl	8002d52 <ucg_com_SetLineStatus>
 8002e4c:	bf00      	nop
 8002e4e:	3708      	adds	r7, #8
 8002e50:	46bd      	mov	sp, r7
 8002e52:	bd80      	pop	{r7, pc}

08002e54 <ucg_com_SetCSLineStatus>:
 8002e54:	b580      	push	{r7, lr}
 8002e56:	b082      	sub	sp, #8
 8002e58:	af00      	add	r7, sp, #0
 8002e5a:	6078      	str	r0, [r7, #4]
 8002e5c:	460b      	mov	r3, r1
 8002e5e:	70fb      	strb	r3, [r7, #3]
 8002e60:	78f9      	ldrb	r1, [r7, #3]
 8002e62:	230e      	movs	r3, #14
 8002e64:	2202      	movs	r2, #2
 8002e66:	6878      	ldr	r0, [r7, #4]
 8002e68:	f7ff ff73 	bl	8002d52 <ucg_com_SetLineStatus>
 8002e6c:	bf00      	nop
 8002e6e:	3708      	adds	r7, #8
 8002e70:	46bd      	mov	sp, r7
 8002e72:	bd80      	pop	{r7, pc}

08002e74 <ucg_com_SetCDLineStatus>:
 8002e74:	b580      	push	{r7, lr}
 8002e76:	b082      	sub	sp, #8
 8002e78:	af00      	add	r7, sp, #0
 8002e7a:	6078      	str	r0, [r7, #4]
 8002e7c:	460b      	mov	r3, r1
 8002e7e:	70fb      	strb	r3, [r7, #3]
 8002e80:	78f9      	ldrb	r1, [r7, #3]
 8002e82:	230f      	movs	r3, #15
 8002e84:	2201      	movs	r2, #1
 8002e86:	6878      	ldr	r0, [r7, #4]
 8002e88:	f7ff ff63 	bl	8002d52 <ucg_com_SetLineStatus>
 8002e8c:	bf00      	nop
 8002e8e:	3708      	adds	r7, #8
 8002e90:	46bd      	mov	sp, r7
 8002e92:	bd80      	pop	{r7, pc}

08002e94 <ucg_com_DelayMicroseconds>:
 8002e94:	b590      	push	{r4, r7, lr}
 8002e96:	b083      	sub	sp, #12
 8002e98:	af00      	add	r7, sp, #0
 8002e9a:	6078      	str	r0, [r7, #4]
 8002e9c:	460b      	mov	r3, r1
 8002e9e:	807b      	strh	r3, [r7, #2]
 8002ea0:	687b      	ldr	r3, [r7, #4]
 8002ea2:	69dc      	ldr	r4, [r3, #28]
 8002ea4:	887a      	ldrh	r2, [r7, #2]
 8002ea6:	2300      	movs	r3, #0
 8002ea8:	210c      	movs	r1, #12
 8002eaa:	6878      	ldr	r0, [r7, #4]
 8002eac:	47a0      	blx	r4
 8002eae:	bf00      	nop
 8002eb0:	370c      	adds	r7, #12
 8002eb2:	46bd      	mov	sp, r7
 8002eb4:	bd90      	pop	{r4, r7, pc}

08002eb6 <ucg_com_DelayMilliseconds>:
 8002eb6:	b580      	push	{r7, lr}
 8002eb8:	b082      	sub	sp, #8
 8002eba:	af00      	add	r7, sp, #0
 8002ebc:	6078      	str	r0, [r7, #4]
 8002ebe:	460b      	mov	r3, r1
 8002ec0:	807b      	strh	r3, [r7, #2]
 8002ec2:	e007      	b.n	8002ed4 <ucg_com_DelayMilliseconds+0x1e>
 8002ec4:	f44f 717a 	mov.w	r1, #1000	; 0x3e8
 8002ec8:	6878      	ldr	r0, [r7, #4]
 8002eca:	f7ff ffe3 	bl	8002e94 <ucg_com_DelayMicroseconds>
 8002ece:	887b      	ldrh	r3, [r7, #2]
 8002ed0:	3b01      	subs	r3, #1
 8002ed2:	807b      	strh	r3, [r7, #2]
 8002ed4:	887b      	ldrh	r3, [r7, #2]
 8002ed6:	2b00      	cmp	r3, #0
 8002ed8:	d1f4      	bne.n	8002ec4 <ucg_com_DelayMilliseconds+0xe>
 8002eda:	bf00      	nop
 8002edc:	3708      	adds	r7, #8
 8002ede:	46bd      	mov	sp, r7
 8002ee0:	bd80      	pop	{r7, pc}

08002ee2 <ucg_com_SendByte>:
 8002ee2:	b590      	push	{r4, r7, lr}
 8002ee4:	b083      	sub	sp, #12
 8002ee6:	af00      	add	r7, sp, #0
 8002ee8:	6078      	str	r0, [r7, #4]
 8002eea:	460b      	mov	r3, r1
 8002eec:	70fb      	strb	r3, [r7, #3]
 8002eee:	687b      	ldr	r3, [r7, #4]
 8002ef0:	69dc      	ldr	r4, [r3, #28]
 8002ef2:	78fb      	ldrb	r3, [r7, #3]
 8002ef4:	b29a      	uxth	r2, r3
 8002ef6:	2300      	movs	r3, #0
 8002ef8:	2110      	movs	r1, #16
 8002efa:	6878      	ldr	r0, [r7, #4]
 8002efc:	47a0      	blx	r4
 8002efe:	bf00      	nop
 8002f00:	370c      	adds	r7, #12
 8002f02:	46bd      	mov	sp, r7
 8002f04:	bd90      	pop	{r4, r7, pc}

08002f06 <ucg_com_SendStringP>:
 8002f06:	b590      	push	{r4, r7, lr}
 8002f08:	b087      	sub	sp, #28
 8002f0a:	af00      	add	r7, sp, #0
 8002f0c:	60f8      	str	r0, [r7, #12]
 8002f0e:	460b      	mov	r3, r1
 8002f10:	607a      	str	r2, [r7, #4]
 8002f12:	817b      	strh	r3, [r7, #10]
 8002f14:	e010      	b.n	8002f38 <ucg_com_SendStringP+0x32>
 8002f16:	687b      	ldr	r3, [r7, #4]
 8002f18:	781b      	ldrb	r3, [r3, #0]
 8002f1a:	75fb      	strb	r3, [r7, #23]
 8002f1c:	68fb      	ldr	r3, [r7, #12]
 8002f1e:	69dc      	ldr	r4, [r3, #28]
 8002f20:	7dfb      	ldrb	r3, [r7, #23]
 8002f22:	b29a      	uxth	r2, r3
 8002f24:	2300      	movs	r3, #0
 8002f26:	2110      	movs	r1, #16
 8002f28:	68f8      	ldr	r0, [r7, #12]
 8002f2a:	47a0      	blx	r4
 8002f2c:	687b      	ldr	r3, [r7, #4]
 8002f2e:	3301      	adds	r3, #1
 8002f30:	607b      	str	r3, [r7, #4]
 8002f32:	897b      	ldrh	r3, [r7, #10]
 8002f34:	3b01      	subs	r3, #1
 8002f36:	817b      	strh	r3, [r7, #10]
 8002f38:	897b      	ldrh	r3, [r7, #10]
 8002f3a:	2b00      	cmp	r3, #0
 8002f3c:	d1eb      	bne.n	8002f16 <ucg_com_SendStringP+0x10>
 8002f3e:	bf00      	nop
 8002f40:	371c      	adds	r7, #28
 8002f42:	46bd      	mov	sp, r7
 8002f44:	bd90      	pop	{r4, r7, pc}

08002f46 <ucg_com_SendCmdArg>:
 8002f46:	b580      	push	{r7, lr}
 8002f48:	b084      	sub	sp, #16
 8002f4a:	af00      	add	r7, sp, #0
 8002f4c:	60f8      	str	r0, [r7, #12]
 8002f4e:	60b9      	str	r1, [r7, #8]
 8002f50:	4611      	mov	r1, r2
 8002f52:	461a      	mov	r2, r3
 8002f54:	460b      	mov	r3, r1
 8002f56:	71fb      	strb	r3, [r7, #7]
 8002f58:	4613      	mov	r3, r2
 8002f5a:	71bb      	strb	r3, [r7, #6]
 8002f5c:	68fb      	ldr	r3, [r7, #12]
 8002f5e:	f893 30b0 	ldrb.w	r3, [r3, #176]	; 0xb0
 8002f62:	085b      	lsrs	r3, r3, #1
 8002f64:	b2db      	uxtb	r3, r3
 8002f66:	f003 0301 	and.w	r3, r3, #1
 8002f6a:	b2db      	uxtb	r3, r3
 8002f6c:	4619      	mov	r1, r3
 8002f6e:	68f8      	ldr	r0, [r7, #12]
 8002f70:	f7ff ff80 	bl	8002e74 <ucg_com_SetCDLineStatus>
 8002f74:	79fb      	ldrb	r3, [r7, #7]
 8002f76:	b29b      	uxth	r3, r3
 8002f78:	68ba      	ldr	r2, [r7, #8]
 8002f7a:	4619      	mov	r1, r3
 8002f7c:	68f8      	ldr	r0, [r7, #12]
 8002f7e:	f7ff ffc2 	bl	8002f06 <ucg_com_SendStringP>
 8002f82:	79bb      	ldrb	r3, [r7, #6]
 8002f84:	2b00      	cmp	r3, #0
 8002f86:	d014      	beq.n	8002fb2 <ucg_com_SendCmdArg+0x6c>
 8002f88:	79fb      	ldrb	r3, [r7, #7]
 8002f8a:	68ba      	ldr	r2, [r7, #8]
 8002f8c:	4413      	add	r3, r2
 8002f8e:	60bb      	str	r3, [r7, #8]
 8002f90:	68fb      	ldr	r3, [r7, #12]
 8002f92:	f893 30b0 	ldrb.w	r3, [r3, #176]	; 0xb0
 8002f96:	f003 0301 	and.w	r3, r3, #1
 8002f9a:	b2db      	uxtb	r3, r3
 8002f9c:	4619      	mov	r1, r3
 8002f9e:	68f8      	ldr	r0, [r7, #12]
 8002fa0:	f7ff ff68 	bl	8002e74 <ucg_com_SetCDLineStatus>
 8002fa4:	79bb      	ldrb	r3, [r7, #6]
 8002fa6:	b29b      	uxth	r3, r3
 8002fa8:	68ba      	ldr	r2, [r7, #8]
 8002faa:	4619      	mov	r1, r3
 8002fac:	68f8      	ldr	r0, [r7, #12]
 8002fae:	f7ff ffaa 	bl	8002f06 <ucg_com_SendStringP>
 8002fb2:	bf00      	nop
 8002fb4:	3710      	adds	r7, #16
 8002fb6:	46bd      	mov	sp, r7
 8002fb8:	bd80      	pop	{r7, pc}
	...

08002fbc <ucg_com_SendCmdSeq>:
 8002fbc:	b580      	push	{r7, lr}
 8002fbe:	b084      	sub	sp, #16
 8002fc0:	af00      	add	r7, sp, #0
 8002fc2:	6078      	str	r0, [r7, #4]
 8002fc4:	6039      	str	r1, [r7, #0]
 8002fc6:	683b      	ldr	r3, [r7, #0]
 8002fc8:	781b      	ldrb	r3, [r3, #0]
 8002fca:	73fb      	strb	r3, [r7, #15]
 8002fcc:	7bfb      	ldrb	r3, [r7, #15]
 8002fce:	091b      	lsrs	r3, r3, #4
 8002fd0:	73bb      	strb	r3, [r7, #14]
 8002fd2:	7bfb      	ldrb	r3, [r7, #15]
 8002fd4:	f003 030f 	and.w	r3, r3, #15
 8002fd8:	737b      	strb	r3, [r7, #13]
 8002fda:	7bbb      	ldrb	r3, [r7, #14]
 8002fdc:	2b0f      	cmp	r3, #15
 8002fde:	f200 8124 	bhi.w	800322a <ucg_com_SendCmdSeq+0x26e>
 8002fe2:	a201      	add	r2, pc, #4	; (adr r2, 8002fe8 <ucg_com_SendCmdSeq+0x2c>)
 8002fe4:	f852 f023 	ldr.w	pc, [r2, r3, lsl #2]
 8002fe8:	0800322b 	.word	0x0800322b
 8002fec:	08003029 	.word	0x08003029
 8002ff0:	08003029 	.word	0x08003029
 8002ff4:	08003029 	.word	0x08003029
 8002ff8:	0800322b 	.word	0x0800322b
 8002ffc:	0800322b 	.word	0x0800322b
 8003000:	08003049 	.word	0x08003049
 8003004:	0800307b 	.word	0x0800307b
 8003008:	080030bf 	.word	0x080030bf
 800300c:	080030eb 	.word	0x080030eb
 8003010:	08003117 	.word	0x08003117
 8003014:	08003177 	.word	0x08003177
 8003018:	0800322b 	.word	0x0800322b
 800301c:	0800322b 	.word	0x0800322b
 8003020:	0800322b 	.word	0x0800322b
 8003024:	080031d7 	.word	0x080031d7
 8003028:	683b      	ldr	r3, [r7, #0]
 800302a:	1c59      	adds	r1, r3, #1
 800302c:	7b7b      	ldrb	r3, [r7, #13]
 800302e:	7bba      	ldrb	r2, [r7, #14]
 8003030:	6878      	ldr	r0, [r7, #4]
 8003032:	f7ff ff88 	bl	8002f46 <ucg_com_SendCmdArg>
 8003036:	7bbb      	ldrb	r3, [r7, #14]
 8003038:	1c5a      	adds	r2, r3, #1
 800303a:	7b7b      	ldrb	r3, [r7, #13]
 800303c:	4413      	add	r3, r2
 800303e:	461a      	mov	r2, r3
 8003040:	683b      	ldr	r3, [r7, #0]
 8003042:	4413      	add	r3, r2
 8003044:	603b      	str	r3, [r7, #0]
 8003046:	e0ef      	b.n	8003228 <ucg_com_SendCmdSeq+0x26c>
 8003048:	687b      	ldr	r3, [r7, #4]
 800304a:	f893 30b0 	ldrb.w	r3, [r3, #176]	; 0xb0
 800304e:	f003 0301 	and.w	r3, r3, #1
 8003052:	b2db      	uxtb	r3, r3
 8003054:	4619      	mov	r1, r3
 8003056:	6878      	ldr	r0, [r7, #4]
 8003058:	f7ff ff0c 	bl	8002e74 <ucg_com_SetCDLineStatus>
 800305c:	7b7b      	ldrb	r3, [r7, #13]
 800305e:	b299      	uxth	r1, r3
 8003060:	683b      	ldr	r3, [r7, #0]
 8003062:	3301      	adds	r3, #1
 8003064:	461a      	mov	r2, r3
 8003066:	6878      	ldr	r0, [r7, #4]
 8003068:	f7ff ff4d 	bl	8002f06 <ucg_com_SendStringP>
 800306c:	7b7b      	ldrb	r3, [r7, #13]
 800306e:	3301      	adds	r3, #1
 8003070:	461a      	mov	r2, r3
 8003072:	683b      	ldr	r3, [r7, #0]
 8003074:	4413      	add	r3, r2
 8003076:	603b      	str	r3, [r7, #0]
 8003078:	e0d6      	b.n	8003228 <ucg_com_SendCmdSeq+0x26c>
 800307a:	687b      	ldr	r3, [r7, #4]
 800307c:	f893 30b0 	ldrb.w	r3, [r3, #176]	; 0xb0
 8003080:	085b      	lsrs	r3, r3, #1
 8003082:	b2db      	uxtb	r3, r3
 8003084:	f003 0301 	and.w	r3, r3, #1
 8003088:	2b00      	cmp	r3, #0
 800308a:	bf0c      	ite	eq
 800308c:	2301      	moveq	r3, #1
 800308e:	2300      	movne	r3, #0
 8003090:	b2db      	uxtb	r3, r3
 8003092:	4619      	mov	r1, r3
 8003094:	6878      	ldr	r0, [r7, #4]
 8003096:	f7ff feed 	bl	8002e74 <ucg_com_SetCDLineStatus>
 800309a:	7b7b      	ldrb	r3, [r7, #13]
 800309c:	2b00      	cmp	r3, #0
 800309e:	d007      	beq.n	80030b0 <ucg_com_SendCmdSeq+0xf4>
 80030a0:	7b7b      	ldrb	r3, [r7, #13]
 80030a2:	b299      	uxth	r1, r3
 80030a4:	683b      	ldr	r3, [r7, #0]
 80030a6:	3301      	adds	r3, #1
 80030a8:	461a      	mov	r2, r3
 80030aa:	6878      	ldr	r0, [r7, #4]
 80030ac:	f7ff ff2b 	bl	8002f06 <ucg_com_SendStringP>
 80030b0:	7b7b      	ldrb	r3, [r7, #13]
 80030b2:	3301      	adds	r3, #1
 80030b4:	461a      	mov	r2, r3
 80030b6:	683b      	ldr	r3, [r7, #0]
 80030b8:	4413      	add	r3, r2
 80030ba:	603b      	str	r3, [r7, #0]
 80030bc:	e0b4      	b.n	8003228 <ucg_com_SendCmdSeq+0x26c>
 80030be:	683b      	ldr	r3, [r7, #0]
 80030c0:	3301      	adds	r3, #1
 80030c2:	603b      	str	r3, [r7, #0]
 80030c4:	683b      	ldr	r3, [r7, #0]
 80030c6:	781b      	ldrb	r3, [r3, #0]
 80030c8:	73fb      	strb	r3, [r7, #15]
 80030ca:	7b7b      	ldrb	r3, [r7, #13]
 80030cc:	b29b      	uxth	r3, r3
 80030ce:	021b      	lsls	r3, r3, #8
 80030d0:	b29a      	uxth	r2, r3
 80030d2:	7bfb      	ldrb	r3, [r7, #15]
 80030d4:	b29b      	uxth	r3, r3
 80030d6:	4413      	add	r3, r2
 80030d8:	b29b      	uxth	r3, r3
 80030da:	4619      	mov	r1, r3
 80030dc:	6878      	ldr	r0, [r7, #4]
 80030de:	f7ff feea 	bl	8002eb6 <ucg_com_DelayMilliseconds>
 80030e2:	683b      	ldr	r3, [r7, #0]
 80030e4:	3301      	adds	r3, #1
 80030e6:	603b      	str	r3, [r7, #0]
 80030e8:	e09e      	b.n	8003228 <ucg_com_SendCmdSeq+0x26c>
 80030ea:	683b      	ldr	r3, [r7, #0]
 80030ec:	3301      	adds	r3, #1
 80030ee:	603b      	str	r3, [r7, #0]
 80030f0:	683b      	ldr	r3, [r7, #0]
 80030f2:	781b      	ldrb	r3, [r3, #0]
 80030f4:	73fb      	strb	r3, [r7, #15]
 80030f6:	7b7b      	ldrb	r3, [r7, #13]
 80030f8:	b29b      	uxth	r3, r3
 80030fa:	021b      	lsls	r3, r3, #8
 80030fc:	b29a      	uxth	r2, r3
 80030fe:	7bfb      	ldrb	r3, [r7, #15]
 8003100:	b29b      	uxth	r3, r3
 8003102:	4413      	add	r3, r2
 8003104:	b29b      	uxth	r3, r3
 8003106:	4619      	mov	r1, r3
 8003108:	6878      	ldr	r0, [r7, #4]
 800310a:	f7ff fec3 	bl	8002e94 <ucg_com_DelayMicroseconds>
 800310e:	683b      	ldr	r3, [r7, #0]
 8003110:	3301      	adds	r3, #1
 8003112:	603b      	str	r3, [r7, #0]
 8003114:	e088      	b.n	8003228 <ucg_com_SendCmdSeq+0x26c>
 8003116:	683b      	ldr	r3, [r7, #0]
 8003118:	3301      	adds	r3, #1
 800311a:	603b      	str	r3, [r7, #0]
 800311c:	683b      	ldr	r3, [r7, #0]
 800311e:	781b      	ldrb	r3, [r3, #0]
 8003120:	73fb      	strb	r3, [r7, #15]
 8003122:	683b      	ldr	r3, [r7, #0]
 8003124:	3301      	adds	r3, #1
 8003126:	603b      	str	r3, [r7, #0]
 8003128:	683b      	ldr	r3, [r7, #0]
 800312a:	781b      	ldrb	r3, [r3, #0]
 800312c:	733b      	strb	r3, [r7, #12]
 800312e:	683b      	ldr	r3, [r7, #0]
 8003130:	3301      	adds	r3, #1
 8003132:	603b      	str	r3, [r7, #0]
 8003134:	687b      	ldr	r3, [r7, #4]
 8003136:	f893 30b0 	ldrb.w	r3, [r3, #176]	; 0xb0
 800313a:	f003 0301 	and.w	r3, r3, #1
 800313e:	b2db      	uxtb	r3, r3
 8003140:	4619      	mov	r1, r3
 8003142:	6878      	ldr	r0, [r7, #4]
 8003144:	f7ff fe96 	bl	8002e74 <ucg_com_SetCDLineStatus>
 8003148:	687b      	ldr	r3, [r7, #4]
 800314a:	f9b3 3024 	ldrsh.w	r3, [r3, #36]	; 0x24
 800314e:	461a      	mov	r2, r3
 8003150:	687b      	ldr	r3, [r7, #4]
 8003152:	f9b3 3020 	ldrsh.w	r3, [r3, #32]
 8003156:	441a      	add	r2, r3
 8003158:	7b7b      	ldrb	r3, [r7, #13]
 800315a:	fa42 f303 	asr.w	r3, r2, r3
 800315e:	b2da      	uxtb	r2, r3
 8003160:	7bfb      	ldrb	r3, [r7, #15]
 8003162:	4013      	ands	r3, r2
 8003164:	b2da      	uxtb	r2, r3
 8003166:	7b3b      	ldrb	r3, [r7, #12]
 8003168:	4313      	orrs	r3, r2
 800316a:	b2db      	uxtb	r3, r3
 800316c:	4619      	mov	r1, r3
 800316e:	6878      	ldr	r0, [r7, #4]
 8003170:	f7ff feb7 	bl	8002ee2 <ucg_com_SendByte>
 8003174:	e058      	b.n	8003228 <ucg_com_SendCmdSeq+0x26c>
 8003176:	683b      	ldr	r3, [r7, #0]
 8003178:	3301      	adds	r3, #1
 800317a:	603b      	str	r3, [r7, #0]
 800317c:	683b      	ldr	r3, [r7, #0]
 800317e:	781b      	ldrb	r3, [r3, #0]
 8003180:	73fb      	strb	r3, [r7, #15]
 8003182:	683b      	ldr	r3, [r7, #0]
 8003184:	3301      	adds	r3, #1
 8003186:	603b      	str	r3, [r7, #0]
 8003188:	683b      	ldr	r3, [r7, #0]
 800318a:	781b      	ldrb	r3, [r3, #0]
 800318c:	733b      	strb	r3, [r7, #12]
 800318e:	683b      	ldr	r3, [r7, #0]
 8003190:	3301      	adds	r3, #1
 8003192:	603b      	str	r3, [r7, #0]
 8003194:	687b      	ldr	r3, [r7, #4]
 8003196:	f893 30b0 	ldrb.w	r3, [r3, #176]	; 0xb0
 800319a:	f003 0301 	and.w	r3, r3, #1
 800319e:	b2db      	uxtb	r3, r3
 80031a0:	4619      	mov	r1, r3
 80031a2:	6878      	ldr	r0, [r7, #4]
 80031a4:	f7ff fe66 	bl	8002e74 <ucg_com_SetCDLineStatus>
 80031a8:	687b      	ldr	r3, [r7, #4]
 80031aa:	f9b3 3026 	ldrsh.w	r3, [r3, #38]	; 0x26
 80031ae:	461a      	mov	r2, r3
 80031b0:	687b      	ldr	r3, [r7, #4]
 80031b2:	f9b3 3022 	ldrsh.w	r3, [r3, #34]	; 0x22
 80031b6:	441a      	add	r2, r3
 80031b8:	7b7b      	ldrb	r3, [r7, #13]
 80031ba:	fa42 f303 	asr.w	r3, r2, r3
 80031be:	b2da      	uxtb	r2, r3
 80031c0:	7bfb      	ldrb	r3, [r7, #15]
 80031c2:	4013      	ands	r3, r2
 80031c4:	b2da      	uxtb	r2, r3
 80031c6:	7b3b      	ldrb	r3, [r7, #12]
 80031c8:	4313      	orrs	r3, r2
 80031ca:	b2db      	uxtb	r3, r3
 80031cc:	4619      	mov	r1, r3
 80031ce:	6878      	ldr	r0, [r7, #4]
 80031d0:	f7ff fe87 	bl	8002ee2 <ucg_com_SendByte>
 80031d4:	e028      	b.n	8003228 <ucg_com_SendCmdSeq+0x26c>
 80031d6:	7b7b      	ldrb	r3, [r7, #13]
 80031d8:	089b      	lsrs	r3, r3, #2
 80031da:	73bb      	strb	r3, [r7, #14]
 80031dc:	7b7b      	ldrb	r3, [r7, #13]
 80031de:	f003 0303 	and.w	r3, r3, #3
 80031e2:	737b      	strb	r3, [r7, #13]
 80031e4:	7bbb      	ldrb	r3, [r7, #14]
 80031e6:	2b01      	cmp	r3, #1
 80031e8:	d00c      	beq.n	8003204 <ucg_com_SendCmdSeq+0x248>
 80031ea:	2b03      	cmp	r3, #3
 80031ec:	d013      	beq.n	8003216 <ucg_com_SendCmdSeq+0x25a>
 80031ee:	2b00      	cmp	r3, #0
 80031f0:	d116      	bne.n	8003220 <ucg_com_SendCmdSeq+0x264>
 80031f2:	7b7b      	ldrb	r3, [r7, #13]
 80031f4:	f003 0301 	and.w	r3, r3, #1
 80031f8:	b2db      	uxtb	r3, r3
 80031fa:	4619      	mov	r1, r3
 80031fc:	6878      	ldr	r0, [r7, #4]
 80031fe:	f7ff fe19 	bl	8002e34 <ucg_com_SetResetLineStatus>
 8003202:	e00d      	b.n	8003220 <ucg_com_SendCmdSeq+0x264>
 8003204:	7b7b      	ldrb	r3, [r7, #13]
 8003206:	f003 0301 	and.w	r3, r3, #1
 800320a:	b2db      	uxtb	r3, r3
 800320c:	4619      	mov	r1, r3
 800320e:	6878      	ldr	r0, [r7, #4]
 8003210:	f7ff fe20 	bl	8002e54 <ucg_com_SetCSLineStatus>
 8003214:	e004      	b.n	8003220 <ucg_com_SendCmdSeq+0x264>
 8003216:	687b      	ldr	r3, [r7, #4]
 8003218:	7b7a      	ldrb	r2, [r7, #13]
 800321a:	f883 20b0 	strb.w	r2, [r3, #176]	; 0xb0
 800321e:	bf00      	nop
 8003220:	683b      	ldr	r3, [r7, #0]
 8003222:	3301      	adds	r3, #1
 8003224:	603b      	str	r3, [r7, #0]
 8003226:	bf00      	nop
 8003228:	e6cd      	b.n	8002fc6 <ucg_com_SendCmdSeq+0xa>
 800322a:	bf00      	nop
 800322c:	3710      	adds	r7, #16
 800322e:	46bd      	mov	sp, r7
 8003230:	bd80      	pop	{r7, pc}
 8003232:	bf00      	nop

08003234 <__libc_init_array>:
 8003234:	b570      	push	{r4, r5, r6, lr}
 8003236:	4d0d      	ldr	r5, [pc, #52]	; (800326c <__libc_init_array+0x38>)
 8003238:	4c0d      	ldr	r4, [pc, #52]	; (8003270 <__libc_init_array+0x3c>)
 800323a:	1b64      	subs	r4, r4, r5
 800323c:	10a4      	asrs	r4, r4, #2
 800323e:	2600      	movs	r6, #0
 8003240:	42a6      	cmp	r6, r4
 8003242:	d109      	bne.n	8003258 <__libc_init_array+0x24>
 8003244:	4d0b      	ldr	r5, [pc, #44]	; (8003274 <__libc_init_array+0x40>)
 8003246:	4c0c      	ldr	r4, [pc, #48]	; (8003278 <__libc_init_array+0x44>)
 8003248:	f000 f818 	bl	800327c <_init>
 800324c:	1b64      	subs	r4, r4, r5
 800324e:	10a4      	asrs	r4, r4, #2
 8003250:	2600      	movs	r6, #0
 8003252:	42a6      	cmp	r6, r4
 8003254:	d105      	bne.n	8003262 <__libc_init_array+0x2e>
 8003256:	bd70      	pop	{r4, r5, r6, pc}
 8003258:	f855 3b04 	ldr.w	r3, [r5], #4
 800325c:	4798      	blx	r3
 800325e:	3601      	adds	r6, #1
 8003260:	e7ee      	b.n	8003240 <__libc_init_array+0xc>
 8003262:	f855 3b04 	ldr.w	r3, [r5], #4
 8003266:	4798      	blx	r3
 8003268:	3601      	adds	r6, #1
 800326a:	e7f2      	b.n	8003252 <__libc_init_array+0x1e>
 800326c:	08003888 	.word	0x08003888
 8003270:	08003888 	.word	0x08003888
 8003274:	08003888 	.word	0x08003888
 8003278:	0800388c 	.word	0x0800388c

0800327c <_init>:
 800327c:	b5f8      	push	{r3, r4, r5, r6, r7, lr}
 800327e:	bf00      	nop
 8003280:	bcf8      	pop	{r3, r4, r5, r6, r7}
 8003282:	bc08      	pop	{r3}
 8003284:	469e      	mov	lr, r3
 8003286:	4770      	bx	lr

08003288 <_fini>:
 8003288:	b5f8      	push	{r3, r4, r5, r6, r7, lr}
 800328a:	bf00      	nop
 800328c:	bcf8      	pop	{r3, r4, r5, r6, r7}
 800328e:	bc08      	pop	{r3}
 8003290:	469e      	mov	lr, r3
 8003292:	4770      	bx	lr
